
stm32g0_test.elf:     file format elf32-littlearm

Sections:
Idx Name          Size      VMA       LMA       File off  Algn
  0 .isr_vector   000000bc  08000000  08000000  00010000  2**0
                  CONTENTS, ALLOC, LOAD, READONLY, DATA
  1 .text         00001a7c  080000bc  080000bc  000100bc  2**2
                  CONTENTS, ALLOC, LOAD, READONLY, CODE
  2 .rodata       00000bb0  08001b38  08001b38  00011b38  2**2
                  CONTENTS, ALLOC, LOAD, READONLY, DATA
  3 .ARM.extab    00000000  080026e8  080026e8  000200a4  2**0
                  CONTENTS
  4 .ARM          00000000  080026e8  080026e8  000200a4  2**0
                  CONTENTS
  5 .preinit_array 00000000  080026e8  080026e8  000200a4  2**0
                  CONTENTS, ALLOC, LOAD, DATA
  6 .init_array   00000004  080026e8  080026e8  000126e8  2**2
                  CONTENTS, ALLOC, LOAD, DATA
  7 .fini_array   00000004  080026ec  080026ec  000126ec  2**2
                  CONTENTS, ALLOC, LOAD, DATA
  8 .data         000000a4  20000000  080026f0  00020000  2**2
                  CONTENTS, ALLOC, LOAD, DATA
  9 .bss          00000024  200000a4  08002794  000200a4  2**2
                  ALLOC
 10 ._user_heap_stack 00000600  200000c8  08002794  000200c8  2**0
                  ALLOC
 11 .ARM.attributes 00000028  00000000  00000000  000200a4  2**0
                  CONTENTS, READONLY
 12 .comment      00000050  00000000  00000000  000200cc  2**0
                  CONTENTS, READONLY
 13 .debug_frame  000000dc  00000000  00000000  0002011c  2**2
                  CONTENTS, READONLY, DEBUGGING, OCTETS

Disassembly of section .text:

080000bc <__do_global_dtors_aux>:
 80000bc:	b510      	push	{r4, lr}
 80000be:	4c06      	ldr	r4, [pc, #24]	; (80000d8 <__do_global_dtors_aux+0x1c>)
 80000c0:	7823      	ldrb	r3, [r4, #0]
 80000c2:	2b00      	cmp	r3, #0
 80000c4:	d107      	bne.n	80000d6 <__do_global_dtors_aux+0x1a>
 80000c6:	4b05      	ldr	r3, [pc, #20]	; (80000dc <__do_global_dtors_aux+0x20>)
 80000c8:	2b00      	cmp	r3, #0
 80000ca:	d002      	beq.n	80000d2 <__do_global_dtors_aux+0x16>
 80000cc:	4804      	ldr	r0, [pc, #16]	; (80000e0 <__do_global_dtors_aux+0x24>)
 80000ce:	e000      	b.n	80000d2 <__do_global_dtors_aux+0x16>
 80000d0:	bf00      	nop
 80000d2:	2301      	movs	r3, #1
 80000d4:	7023      	strb	r3, [r4, #0]
 80000d6:	bd10      	pop	{r4, pc}
 80000d8:	200000a4 	.word	0x200000a4
 80000dc:	00000000 	.word	0x00000000
 80000e0:	08001b20 	.word	0x08001b20

080000e4 <frame_dummy>:
 80000e4:	4b04      	ldr	r3, [pc, #16]	; (80000f8 <frame_dummy+0x14>)
 80000e6:	b510      	push	{r4, lr}
 80000e8:	2b00      	cmp	r3, #0
 80000ea:	d003      	beq.n	80000f4 <frame_dummy+0x10>
 80000ec:	4903      	ldr	r1, [pc, #12]	; (80000fc <frame_dummy+0x18>)
 80000ee:	4804      	ldr	r0, [pc, #16]	; (8000100 <frame_dummy+0x1c>)
 80000f0:	e000      	b.n	80000f4 <frame_dummy+0x10>
 80000f2:	bf00      	nop
 80000f4:	bd10      	pop	{r4, pc}
 80000f6:	46c0      	nop			; (mov r8, r8)
 80000f8:	00000000 	.word	0x00000000
 80000fc:	200000a8 	.word	0x200000a8
 8000100:	08001b20 	.word	0x08001b20

08000104 <__udivsi3>:
 8000104:	2200      	movs	r2, #0
 8000106:	0843      	lsrs	r3, r0, #1
 8000108:	428b      	cmp	r3, r1
 800010a:	d374      	bcc.n	80001f6 <__udivsi3+0xf2>
 800010c:	0903      	lsrs	r3, r0, #4
 800010e:	428b      	cmp	r3, r1
 8000110:	d35f      	bcc.n	80001d2 <__udivsi3+0xce>
 8000112:	0a03      	lsrs	r3, r0, #8
 8000114:	428b      	cmp	r3, r1
 8000116:	d344      	bcc.n	80001a2 <__udivsi3+0x9e>
 8000118:	0b03      	lsrs	r3, r0, #12
 800011a:	428b      	cmp	r3, r1
 800011c:	d328      	bcc.n	8000170 <__udivsi3+0x6c>
 800011e:	0c03      	lsrs	r3, r0, #16
 8000120:	428b      	cmp	r3, r1
 8000122:	d30d      	bcc.n	8000140 <__udivsi3+0x3c>
 8000124:	22ff      	movs	r2, #255	; 0xff
 8000126:	0209      	lsls	r1, r1, #8
 8000128:	ba12      	rev	r2, r2
 800012a:	0c03      	lsrs	r3, r0, #16
 800012c:	428b      	cmp	r3, r1
 800012e:	d302      	bcc.n	8000136 <__udivsi3+0x32>
 8000130:	1212      	asrs	r2, r2, #8
 8000132:	0209      	lsls	r1, r1, #8
 8000134:	d065      	beq.n	8000202 <__udivsi3+0xfe>
 8000136:	0b03      	lsrs	r3, r0, #12
 8000138:	428b      	cmp	r3, r1
 800013a:	d319      	bcc.n	8000170 <__udivsi3+0x6c>
 800013c:	e000      	b.n	8000140 <__udivsi3+0x3c>
 800013e:	0a09      	lsrs	r1, r1, #8
 8000140:	0bc3      	lsrs	r3, r0, #15
 8000142:	428b      	cmp	r3, r1
 8000144:	d301      	bcc.n	800014a <__udivsi3+0x46>
 8000146:	03cb      	lsls	r3, r1, #15
 8000148:	1ac0      	subs	r0, r0, r3
 800014a:	4152      	adcs	r2, r2
 800014c:	0b83      	lsrs	r3, r0, #14
 800014e:	428b      	cmp	r3, r1
 8000150:	d301      	bcc.n	8000156 <__udivsi3+0x52>
 8000152:	038b      	lsls	r3, r1, #14
 8000154:	1ac0      	subs	r0, r0, r3
 8000156:	4152      	adcs	r2, r2
 8000158:	0b43      	lsrs	r3, r0, #13
 800015a:	428b      	cmp	r3, r1
 800015c:	d301      	bcc.n	8000162 <__udivsi3+0x5e>
 800015e:	034b      	lsls	r3, r1, #13
 8000160:	1ac0      	subs	r0, r0, r3
 8000162:	4152      	adcs	r2, r2
 8000164:	0b03      	lsrs	r3, r0, #12
 8000166:	428b      	cmp	r3, r1
 8000168:	d301      	bcc.n	800016e <__udivsi3+0x6a>
 800016a:	030b      	lsls	r3, r1, #12
 800016c:	1ac0      	subs	r0, r0, r3
 800016e:	4152      	adcs	r2, r2
 8000170:	0ac3      	lsrs	r3, r0, #11
 8000172:	428b      	cmp	r3, r1
 8000174:	d301      	bcc.n	800017a <__udivsi3+0x76>
 8000176:	02cb      	lsls	r3, r1, #11
 8000178:	1ac0      	subs	r0, r0, r3
 800017a:	4152      	adcs	r2, r2
 800017c:	0a83      	lsrs	r3, r0, #10
 800017e:	428b      	cmp	r3, r1
 8000180:	d301      	bcc.n	8000186 <__udivsi3+0x82>
 8000182:	028b      	lsls	r3, r1, #10
 8000184:	1ac0      	subs	r0, r0, r3
 8000186:	4152      	adcs	r2, r2
 8000188:	0a43      	lsrs	r3, r0, #9
 800018a:	428b      	cmp	r3, r1
 800018c:	d301      	bcc.n	8000192 <__udivsi3+0x8e>
 800018e:	024b      	lsls	r3, r1, #9
 8000190:	1ac0      	subs	r0, r0, r3
 8000192:	4152      	adcs	r2, r2
 8000194:	0a03      	lsrs	r3, r0, #8
 8000196:	428b      	cmp	r3, r1
 8000198:	d301      	bcc.n	800019e <__udivsi3+0x9a>
 800019a:	020b      	lsls	r3, r1, #8
 800019c:	1ac0      	subs	r0, r0, r3
 800019e:	4152      	adcs	r2, r2
 80001a0:	d2cd      	bcs.n	800013e <__udivsi3+0x3a>
 80001a2:	09c3      	lsrs	r3, r0, #7
 80001a4:	428b      	cmp	r3, r1
 80001a6:	d301      	bcc.n	80001ac <__udivsi3+0xa8>
 80001a8:	01cb      	lsls	r3, r1, #7
 80001aa:	1ac0      	subs	r0, r0, r3
 80001ac:	4152      	adcs	r2, r2
 80001ae:	0983      	lsrs	r3, r0, #6
 80001b0:	428b      	cmp	r3, r1
 80001b2:	d301      	bcc.n	80001b8 <__udivsi3+0xb4>
 80001b4:	018b      	lsls	r3, r1, #6
 80001b6:	1ac0      	subs	r0, r0, r3
 80001b8:	4152      	adcs	r2, r2
 80001ba:	0943      	lsrs	r3, r0, #5
 80001bc:	428b      	cmp	r3, r1
 80001be:	d301      	bcc.n	80001c4 <__udivsi3+0xc0>
 80001c0:	014b      	lsls	r3, r1, #5
 80001c2:	1ac0      	subs	r0, r0, r3
 80001c4:	4152      	adcs	r2, r2
 80001c6:	0903      	lsrs	r3, r0, #4
 80001c8:	428b      	cmp	r3, r1
 80001ca:	d301      	bcc.n	80001d0 <__udivsi3+0xcc>
 80001cc:	010b      	lsls	r3, r1, #4
 80001ce:	1ac0      	subs	r0, r0, r3
 80001d0:	4152      	adcs	r2, r2
 80001d2:	08c3      	lsrs	r3, r0, #3
 80001d4:	428b      	cmp	r3, r1
 80001d6:	d301      	bcc.n	80001dc <__udivsi3+0xd8>
 80001d8:	00cb      	lsls	r3, r1, #3
 80001da:	1ac0      	subs	r0, r0, r3
 80001dc:	4152      	adcs	r2, r2
 80001de:	0883      	lsrs	r3, r0, #2
 80001e0:	428b      	cmp	r3, r1
 80001e2:	d301      	bcc.n	80001e8 <__udivsi3+0xe4>
 80001e4:	008b      	lsls	r3, r1, #2
 80001e6:	1ac0      	subs	r0, r0, r3
 80001e8:	4152      	adcs	r2, r2
 80001ea:	0843      	lsrs	r3, r0, #1
 80001ec:	428b      	cmp	r3, r1
 80001ee:	d301      	bcc.n	80001f4 <__udivsi3+0xf0>
 80001f0:	004b      	lsls	r3, r1, #1
 80001f2:	1ac0      	subs	r0, r0, r3
 80001f4:	4152      	adcs	r2, r2
 80001f6:	1a41      	subs	r1, r0, r1
 80001f8:	d200      	bcs.n	80001fc <__udivsi3+0xf8>
 80001fa:	4601      	mov	r1, r0
 80001fc:	4152      	adcs	r2, r2
 80001fe:	4610      	mov	r0, r2
 8000200:	4770      	bx	lr
 8000202:	e7ff      	b.n	8000204 <__udivsi3+0x100>
 8000204:	b501      	push	{r0, lr}
 8000206:	2000      	movs	r0, #0
 8000208:	f000 f806 	bl	8000218 <__aeabi_idiv0>
 800020c:	bd02      	pop	{r1, pc}
 800020e:	46c0      	nop			; (mov r8, r8)

08000210 <__aeabi_uidivmod>:
 8000210:	2900      	cmp	r1, #0
 8000212:	d0f7      	beq.n	8000204 <__udivsi3+0x100>
 8000214:	e776      	b.n	8000104 <__udivsi3>
 8000216:	4770      	bx	lr

08000218 <__aeabi_idiv0>:
 8000218:	4770      	bx	lr
 800021a:	46c0      	nop			; (mov r8, r8)

0800021c <SystemClock_Config>:
 800021c:	2107      	movs	r1, #7
 800021e:	4a24      	ldr	r2, [pc, #144]	; (80002b0 <SystemClock_Config+0x94>)
 8000220:	b510      	push	{r4, lr}
 8000222:	6813      	ldr	r3, [r2, #0]
 8000224:	438b      	bics	r3, r1
 8000226:	3905      	subs	r1, #5
 8000228:	430b      	orrs	r3, r1
 800022a:	6013      	str	r3, [r2, #0]
 800022c:	3105      	adds	r1, #5
 800022e:	6813      	ldr	r3, [r2, #0]
 8000230:	400b      	ands	r3, r1
 8000232:	2b02      	cmp	r3, #2
 8000234:	d1fb      	bne.n	800022e <SystemClock_Config+0x12>
 8000236:	2280      	movs	r2, #128	; 0x80
 8000238:	4b1e      	ldr	r3, [pc, #120]	; (80002b4 <SystemClock_Config+0x98>)
 800023a:	0052      	lsls	r2, r2, #1
 800023c:	6819      	ldr	r1, [r3, #0]
 800023e:	430a      	orrs	r2, r1
 8000240:	2180      	movs	r1, #128	; 0x80
 8000242:	601a      	str	r2, [r3, #0]
 8000244:	00c9      	lsls	r1, r1, #3
 8000246:	681a      	ldr	r2, [r3, #0]
 8000248:	420a      	tst	r2, r1
 800024a:	d0fc      	beq.n	8000246 <SystemClock_Config+0x2a>
 800024c:	68da      	ldr	r2, [r3, #12]
 800024e:	491a      	ldr	r1, [pc, #104]	; (80002b8 <SystemClock_Config+0x9c>)
 8000250:	4011      	ands	r1, r2
 8000252:	4a1a      	ldr	r2, [pc, #104]	; (80002bc <SystemClock_Config+0xa0>)
 8000254:	430a      	orrs	r2, r1
 8000256:	60da      	str	r2, [r3, #12]
 8000258:	2280      	movs	r2, #128	; 0x80
 800025a:	6819      	ldr	r1, [r3, #0]
 800025c:	0452      	lsls	r2, r2, #17
 800025e:	430a      	orrs	r2, r1
 8000260:	601a      	str	r2, [r3, #0]
 8000262:	2280      	movs	r2, #128	; 0x80
 8000264:	68d9      	ldr	r1, [r3, #12]
 8000266:	0552      	lsls	r2, r2, #21
 8000268:	430a      	orrs	r2, r1
 800026a:	2180      	movs	r1, #128	; 0x80
 800026c:	60da      	str	r2, [r3, #12]
 800026e:	4b11      	ldr	r3, [pc, #68]	; (80002b4 <SystemClock_Config+0x98>)
 8000270:	0489      	lsls	r1, r1, #18
 8000272:	681a      	ldr	r2, [r3, #0]
 8000274:	420a      	tst	r2, r1
 8000276:	d0fc      	beq.n	8000272 <SystemClock_Config+0x56>
 8000278:	689a      	ldr	r2, [r3, #8]
 800027a:	4911      	ldr	r1, [pc, #68]	; (80002c0 <SystemClock_Config+0xa4>)
 800027c:	400a      	ands	r2, r1
 800027e:	2107      	movs	r1, #7
 8000280:	609a      	str	r2, [r3, #8]
 8000282:	689a      	ldr	r2, [r3, #8]
 8000284:	438a      	bics	r2, r1
 8000286:	3905      	subs	r1, #5
 8000288:	430a      	orrs	r2, r1
 800028a:	609a      	str	r2, [r3, #8]
 800028c:	4a09      	ldr	r2, [pc, #36]	; (80002b4 <SystemClock_Config+0x98>)
 800028e:	3136      	adds	r1, #54	; 0x36
 8000290:	6893      	ldr	r3, [r2, #8]
 8000292:	400b      	ands	r3, r1
 8000294:	2b10      	cmp	r3, #16
 8000296:	d1fb      	bne.n	8000290 <SystemClock_Config+0x74>
 8000298:	6893      	ldr	r3, [r2, #8]
 800029a:	490a      	ldr	r1, [pc, #40]	; (80002c4 <SystemClock_Config+0xa8>)
 800029c:	480a      	ldr	r0, [pc, #40]	; (80002c8 <SystemClock_Config+0xac>)
 800029e:	400b      	ands	r3, r1
 80002a0:	6093      	str	r3, [r2, #8]
 80002a2:	f001 fba1 	bl	80019e8 <LL_Init1msTick>
 80002a6:	4808      	ldr	r0, [pc, #32]	; (80002c8 <SystemClock_Config+0xac>)
 80002a8:	f001 fbc4 	bl	8001a34 <LL_SetSystemCoreClock>
 80002ac:	bd10      	pop	{r4, pc}
 80002ae:	46c0      	nop			; (mov r8, r8)
 80002b0:	40022000 	.word	0x40022000
 80002b4:	40021000 	.word	0x40021000
 80002b8:	1fff808c 	.word	0x1fff808c
 80002bc:	20000802 	.word	0x20000802
 80002c0:	fffff0ff 	.word	0xfffff0ff
 80002c4:	ffff8fff 	.word	0xffff8fff
 80002c8:	03d09000 	.word	0x03d09000

080002cc <main>:
 80002cc:	2201      	movs	r2, #1
 80002ce:	b5f0      	push	{r4, r5, r6, r7, lr}
 80002d0:	46de      	mov	lr, fp
 80002d2:	4645      	mov	r5, r8
 80002d4:	4657      	mov	r7, sl
 80002d6:	464e      	mov	r6, r9
 80002d8:	4bfc      	ldr	r3, [pc, #1008]	; (80006cc <main+0x400>)
 80002da:	b5e0      	push	{r5, r6, r7, lr}
 80002dc:	6c19      	ldr	r1, [r3, #64]	; 0x40
 80002de:	25c0      	movs	r5, #192	; 0xc0
 80002e0:	4311      	orrs	r1, r2
 80002e2:	6419      	str	r1, [r3, #64]	; 0x40
 80002e4:	6c19      	ldr	r1, [r3, #64]	; 0x40
 80002e6:	4cfa      	ldr	r4, [pc, #1000]	; (80006d0 <main+0x404>)
 80002e8:	400a      	ands	r2, r1
 80002ea:	2180      	movs	r1, #128	; 0x80
 80002ec:	44a5      	add	sp, r4
 80002ee:	9212      	str	r2, [sp, #72]	; 0x48
 80002f0:	9a12      	ldr	r2, [sp, #72]	; 0x48
 80002f2:	6bda      	ldr	r2, [r3, #60]	; 0x3c
 80002f4:	0549      	lsls	r1, r1, #21
 80002f6:	430a      	orrs	r2, r1
 80002f8:	63da      	str	r2, [r3, #60]	; 0x3c
 80002fa:	6bdb      	ldr	r3, [r3, #60]	; 0x3c
 80002fc:	4cf5      	ldr	r4, [pc, #980]	; (80006d4 <main+0x408>)
 80002fe:	400b      	ands	r3, r1
 8000300:	9311      	str	r3, [sp, #68]	; 0x44
 8000302:	9b11      	ldr	r3, [sp, #68]	; 0x44
 8000304:	6a23      	ldr	r3, [r4, #32]
 8000306:	062d      	lsls	r5, r5, #24
 8000308:	021b      	lsls	r3, r3, #8
 800030a:	0a1b      	lsrs	r3, r3, #8
 800030c:	432b      	orrs	r3, r5
 800030e:	6223      	str	r3, [r4, #32]
 8000310:	f7ff ff84 	bl	800021c <SystemClock_Config>
 8000314:	21fa      	movs	r1, #250	; 0xfa
 8000316:	4bf0      	ldr	r3, [pc, #960]	; (80006d8 <main+0x40c>)
 8000318:	0089      	lsls	r1, r1, #2
 800031a:	6818      	ldr	r0, [r3, #0]
 800031c:	f7ff fef2 	bl	8000104 <__udivsi3>
 8000320:	2380      	movs	r3, #128	; 0x80
 8000322:	3801      	subs	r0, #1
 8000324:	045b      	lsls	r3, r3, #17
 8000326:	4298      	cmp	r0, r3
 8000328:	d20a      	bcs.n	8000340 <main+0x74>
 800032a:	4aec      	ldr	r2, [pc, #944]	; (80006dc <main+0x410>)
 800032c:	6050      	str	r0, [r2, #4]
 800032e:	6a23      	ldr	r3, [r4, #32]
 8000330:	021b      	lsls	r3, r3, #8
 8000332:	0a1b      	lsrs	r3, r3, #8
 8000334:	431d      	orrs	r5, r3
 8000336:	2300      	movs	r3, #0
 8000338:	6225      	str	r5, [r4, #32]
 800033a:	6093      	str	r3, [r2, #8]
 800033c:	3307      	adds	r3, #7
 800033e:	6013      	str	r3, [r2, #0]
 8000340:	220c      	movs	r2, #12
 8000342:	2100      	movs	r1, #0
 8000344:	a82d      	add	r0, sp, #180	; 0xb4
 8000346:	f001 fb9f 	bl	8001a88 <memset>
 800034a:	2201      	movs	r2, #1
 800034c:	4cdf      	ldr	r4, [pc, #892]	; (80006cc <main+0x400>)
 800034e:	2708      	movs	r7, #8
 8000350:	6b63      	ldr	r3, [r4, #52]	; 0x34
 8000352:	4690      	mov	r8, r2
 8000354:	4313      	orrs	r3, r2
 8000356:	6363      	str	r3, [r4, #52]	; 0x34
 8000358:	6b63      	ldr	r3, [r4, #52]	; 0x34
 800035a:	2520      	movs	r5, #32
 800035c:	4013      	ands	r3, r2
 800035e:	9317      	str	r3, [sp, #92]	; 0x5c
 8000360:	9b17      	ldr	r3, [sp, #92]	; 0x5c
 8000362:	23a0      	movs	r3, #160	; 0xa0
 8000364:	05db      	lsls	r3, r3, #23
 8000366:	619f      	str	r7, [r3, #24]
 8000368:	4699      	mov	r9, r3
 800036a:	2310      	movs	r3, #16
 800036c:	469a      	mov	sl, r3
 800036e:	464b      	mov	r3, r9
 8000370:	4652      	mov	r2, sl
 8000372:	619a      	str	r2, [r3, #24]
 8000374:	619d      	str	r5, [r3, #24]
 8000376:	2208      	movs	r2, #8
 8000378:	2301      	movs	r3, #1
 800037a:	2102      	movs	r1, #2
 800037c:	922a      	str	r2, [sp, #168]	; 0xa8
 800037e:	932b      	str	r3, [sp, #172]	; 0xac
 8000380:	ab2a      	add	r3, sp, #168	; 0xa8
 8000382:	912c      	str	r1, [sp, #176]	; 0xb0
 8000384:	4648      	mov	r0, r9
 8000386:	0019      	movs	r1, r3
 8000388:	f001 f8be 	bl	8001508 <LL_GPIO_Init>
 800038c:	2210      	movs	r2, #16
 800038e:	2301      	movs	r3, #1
 8000390:	922a      	str	r2, [sp, #168]	; 0xa8
 8000392:	932b      	str	r3, [sp, #172]	; 0xac
 8000394:	4643      	mov	r3, r8
 8000396:	2602      	movs	r6, #2
 8000398:	2700      	movs	r7, #0
 800039a:	932e      	str	r3, [sp, #184]	; 0xb8
 800039c:	ab2a      	add	r3, sp, #168	; 0xa8
 800039e:	0019      	movs	r1, r3
 80003a0:	4648      	mov	r0, r9
 80003a2:	962c      	str	r6, [sp, #176]	; 0xb0
 80003a4:	972d      	str	r7, [sp, #180]	; 0xb4
 80003a6:	f001 f8af 	bl	8001508 <LL_GPIO_Init>
 80003aa:	2220      	movs	r2, #32
 80003ac:	2301      	movs	r3, #1
 80003ae:	922a      	str	r2, [sp, #168]	; 0xa8
 80003b0:	932b      	str	r3, [sp, #172]	; 0xac
 80003b2:	4643      	mov	r3, r8
 80003b4:	932e      	str	r3, [sp, #184]	; 0xb8
 80003b6:	ab2a      	add	r3, sp, #168	; 0xa8
 80003b8:	0019      	movs	r1, r3
 80003ba:	4648      	mov	r0, r9
 80003bc:	962c      	str	r6, [sp, #176]	; 0xb0
 80003be:	972d      	str	r7, [sp, #180]	; 0xb4
 80003c0:	f001 f8a2 	bl	8001508 <LL_GPIO_Init>
 80003c4:	4642      	mov	r2, r8
 80003c6:	21c2      	movs	r1, #194	; 0xc2
 80003c8:	6ba3      	ldr	r3, [r4, #56]	; 0x38
 80003ca:	0089      	lsls	r1, r1, #2
 80003cc:	4313      	orrs	r3, r2
 80003ce:	63a3      	str	r3, [r4, #56]	; 0x38
 80003d0:	6ba3      	ldr	r3, [r4, #56]	; 0x38
 80003d2:	48c3      	ldr	r0, [pc, #780]	; (80006e0 <main+0x414>)
 80003d4:	4013      	ands	r3, r2
 80003d6:	9310      	str	r3, [sp, #64]	; 0x40
 80003d8:	9b10      	ldr	r3, [sp, #64]	; 0x40
 80003da:	4bc2      	ldr	r3, [pc, #776]	; (80006e4 <main+0x418>)
 80003dc:	585a      	ldr	r2, [r3, r1]
 80003de:	4002      	ands	r2, r0
 80003e0:	505a      	str	r2, [r3, r1]
 80003e2:	2280      	movs	r2, #128	; 0x80
 80003e4:	0092      	lsls	r2, r2, #2
 80003e6:	601a      	str	r2, [r3, #0]
 80003e8:	3ad9      	subs	r2, #217	; 0xd9
 80003ea:	2100      	movs	r1, #0
 80003ec:	3aff      	subs	r2, #255	; 0xff
 80003ee:	a82a      	add	r0, sp, #168	; 0xa8
 80003f0:	f001 fb4a 	bl	8001a88 <memset>
 80003f4:	220c      	movs	r2, #12
 80003f6:	2100      	movs	r1, #0
 80003f8:	a823      	add	r0, sp, #140	; 0x8c
 80003fa:	f001 fb45 	bl	8001a88 <memset>
 80003fe:	2180      	movs	r1, #128	; 0x80
 8000400:	6c22      	ldr	r2, [r4, #64]	; 0x40
 8000402:	0149      	lsls	r1, r1, #5
 8000404:	430a      	orrs	r2, r1
 8000406:	6422      	str	r2, [r4, #64]	; 0x40
 8000408:	4642      	mov	r2, r8
 800040a:	6c23      	ldr	r3, [r4, #64]	; 0x40
 800040c:	4648      	mov	r0, r9
 800040e:	400b      	ands	r3, r1
 8000410:	9315      	str	r3, [sp, #84]	; 0x54
 8000412:	9b15      	ldr	r3, [sp, #84]	; 0x54
 8000414:	6b63      	ldr	r3, [r4, #52]	; 0x34
 8000416:	2708      	movs	r7, #8
 8000418:	4313      	orrs	r3, r2
 800041a:	6363      	str	r3, [r4, #52]	; 0x34
 800041c:	6b63      	ldr	r3, [r4, #52]	; 0x34
 800041e:	4eb2      	ldr	r6, [pc, #712]	; (80006e8 <main+0x41c>)
 8000420:	4013      	ands	r3, r2
 8000422:	9316      	str	r3, [sp, #88]	; 0x58
 8000424:	2202      	movs	r2, #2
 8000426:	9b16      	ldr	r3, [sp, #88]	; 0x58
 8000428:	2302      	movs	r3, #2
 800042a:	9220      	str	r2, [sp, #128]	; 0x80
 800042c:	9321      	str	r3, [sp, #132]	; 0x84
 800042e:	2303      	movs	r3, #3
 8000430:	9322      	str	r3, [sp, #136]	; 0x88
 8000432:	4643      	mov	r3, r8
 8000434:	9324      	str	r3, [sp, #144]	; 0x90
 8000436:	ab20      	add	r3, sp, #128	; 0x80
 8000438:	0019      	movs	r1, r3
 800043a:	f001 f865 	bl	8001508 <LL_GPIO_Init>
 800043e:	2204      	movs	r2, #4
 8000440:	2302      	movs	r3, #2
 8000442:	9220      	str	r2, [sp, #128]	; 0x80
 8000444:	9321      	str	r3, [sp, #132]	; 0x84
 8000446:	2203      	movs	r2, #3
 8000448:	2300      	movs	r3, #0
 800044a:	9222      	str	r2, [sp, #136]	; 0x88
 800044c:	9323      	str	r3, [sp, #140]	; 0x8c
 800044e:	2201      	movs	r2, #1
 8000450:	2300      	movs	r3, #0
 8000452:	9224      	str	r2, [sp, #144]	; 0x90
 8000454:	9325      	str	r3, [sp, #148]	; 0x94
 8000456:	ab20      	add	r3, sp, #128	; 0x80
 8000458:	0019      	movs	r1, r3
 800045a:	4648      	mov	r0, r9
 800045c:	f001 f854 	bl	8001508 <LL_GPIO_Init>
 8000460:	213f      	movs	r1, #63	; 0x3f
 8000462:	4650      	mov	r0, sl
 8000464:	4aa1      	ldr	r2, [pc, #644]	; (80006ec <main+0x420>)
 8000466:	6813      	ldr	r3, [r2, #0]
 8000468:	438b      	bics	r3, r1
 800046a:	392e      	subs	r1, #46	; 0x2e
 800046c:	430b      	orrs	r3, r1
 800046e:	6013      	str	r3, [r2, #0]
 8000470:	4b9f      	ldr	r3, [pc, #636]	; (80006f0 <main+0x424>)
 8000472:	49a0      	ldr	r1, [pc, #640]	; (80006f4 <main+0x428>)
 8000474:	681a      	ldr	r2, [r3, #0]
 8000476:	400a      	ands	r2, r1
 8000478:	4302      	orrs	r2, r0
 800047a:	601a      	str	r2, [r3, #0]
 800047c:	681a      	ldr	r2, [r3, #0]
 800047e:	499e      	ldr	r1, [pc, #632]	; (80006f8 <main+0x42c>)
 8000480:	3070      	adds	r0, #112	; 0x70
 8000482:	400a      	ands	r2, r1
 8000484:	2140      	movs	r1, #64	; 0x40
 8000486:	601a      	str	r2, [r3, #0]
 8000488:	681a      	ldr	r2, [r3, #0]
 800048a:	4683      	mov	fp, r0
 800048c:	43aa      	bics	r2, r5
 800048e:	601a      	str	r2, [r3, #0]
 8000490:	681a      	ldr	r2, [r3, #0]
 8000492:	4d9a      	ldr	r5, [pc, #616]	; (80006fc <main+0x430>)
 8000494:	438a      	bics	r2, r1
 8000496:	601a      	str	r2, [r3, #0]
 8000498:	681a      	ldr	r2, [r3, #0]
 800049a:	4999      	ldr	r1, [pc, #612]	; (8000700 <main+0x434>)
 800049c:	4382      	bics	r2, r0
 800049e:	4302      	orrs	r2, r0
 80004a0:	601a      	str	r2, [r3, #0]
 80004a2:	681a      	ldr	r2, [r3, #0]
 80004a4:	a82a      	add	r0, sp, #168	; 0xa8
 80004a6:	4011      	ands	r1, r2
 80004a8:	2280      	movs	r2, #128	; 0x80
 80004aa:	0052      	lsls	r2, r2, #1
 80004ac:	430a      	orrs	r2, r1
 80004ae:	601a      	str	r2, [r3, #0]
 80004b0:	681a      	ldr	r2, [r3, #0]
 80004b2:	4994      	ldr	r1, [pc, #592]	; (8000704 <main+0x438>)
 80004b4:	4011      	ands	r1, r2
 80004b6:	2280      	movs	r2, #128	; 0x80
 80004b8:	00d2      	lsls	r2, r2, #3
 80004ba:	430a      	orrs	r2, r1
 80004bc:	601a      	str	r2, [r3, #0]
 80004be:	2382      	movs	r3, #130	; 0x82
 80004c0:	2200      	movs	r2, #0
 80004c2:	005b      	lsls	r3, r3, #1
 80004c4:	922a      	str	r2, [sp, #168]	; 0xa8
 80004c6:	932b      	str	r3, [sp, #172]	; 0xac
 80004c8:	22f0      	movs	r2, #240	; 0xf0
 80004ca:	2302      	movs	r3, #2
 80004cc:	0112      	lsls	r2, r2, #4
 80004ce:	922c      	str	r2, [sp, #176]	; 0xb0
 80004d0:	932d      	str	r3, [sp, #180]	; 0xb4
 80004d2:	2380      	movs	r3, #128	; 0x80
 80004d4:	2200      	movs	r2, #0
 80004d6:	009b      	lsls	r3, r3, #2
 80004d8:	922e      	str	r2, [sp, #184]	; 0xb8
 80004da:	932f      	str	r3, [sp, #188]	; 0xbc
 80004dc:	2200      	movs	r2, #0
 80004de:	2300      	movs	r3, #0
 80004e0:	9230      	str	r2, [sp, #192]	; 0xc0
 80004e2:	9331      	str	r3, [sp, #196]	; 0xc4
 80004e4:	2200      	movs	r2, #0
 80004e6:	2307      	movs	r3, #7
 80004e8:	0001      	movs	r1, r0
 80004ea:	0028      	movs	r0, r5
 80004ec:	9232      	str	r2, [sp, #200]	; 0xc8
 80004ee:	9333      	str	r3, [sp, #204]	; 0xcc
 80004f0:	f001 f888 	bl	8001604 <LL_SPI_Init>
 80004f4:	4650      	mov	r0, sl
 80004f6:	686b      	ldr	r3, [r5, #4]
 80004f8:	2214      	movs	r2, #20
 80004fa:	4383      	bics	r3, r0
 80004fc:	606b      	str	r3, [r5, #4]
 80004fe:	686b      	ldr	r3, [r5, #4]
 8000500:	2100      	movs	r1, #0
 8000502:	433b      	orrs	r3, r7
 8000504:	606b      	str	r3, [r5, #4]
 8000506:	ad1b      	add	r5, sp, #108	; 0x6c
 8000508:	0028      	movs	r0, r5
 800050a:	f001 fabd 	bl	8001a88 <memset>
 800050e:	2220      	movs	r2, #32
 8000510:	2100      	movs	r1, #0
 8000512:	a82a      	add	r0, sp, #168	; 0xa8
 8000514:	f001 fab8 	bl	8001a88 <memset>
 8000518:	2218      	movs	r2, #24
 800051a:	2100      	movs	r1, #0
 800051c:	a820      	add	r0, sp, #128	; 0x80
 800051e:	f001 fab3 	bl	8001a88 <memset>
 8000522:	2102      	movs	r1, #2
 8000524:	6be3      	ldr	r3, [r4, #60]	; 0x3c
 8000526:	0030      	movs	r0, r6
 8000528:	430b      	orrs	r3, r1
 800052a:	63e3      	str	r3, [r4, #60]	; 0x3c
 800052c:	6be3      	ldr	r3, [r4, #60]	; 0x3c
 800052e:	400b      	ands	r3, r1
 8000530:	9313      	str	r3, [sp, #76]	; 0x4c
 8000532:	9b13      	ldr	r3, [sp, #76]	; 0x4c
 8000534:	4b74      	ldr	r3, [pc, #464]	; (8000708 <main+0x43c>)
 8000536:	0029      	movs	r1, r5
 8000538:	802b      	strh	r3, [r5, #0]
 800053a:	239f      	movs	r3, #159	; 0x9f
 800053c:	931d      	str	r3, [sp, #116]	; 0x74
 800053e:	f001 f89f 	bl	8001680 <LL_TIM_Init>
 8000542:	4658      	mov	r0, fp
 8000544:	6833      	ldr	r3, [r6, #0]
 8000546:	2260      	movs	r2, #96	; 0x60
 8000548:	4383      	bics	r3, r0
 800054a:	6033      	str	r3, [r6, #0]
 800054c:	69b3      	ldr	r3, [r6, #24]
 800054e:	a82a      	add	r0, sp, #168	; 0xa8
 8000550:	433b      	orrs	r3, r7
 8000552:	61b3      	str	r3, [r6, #24]
 8000554:	2300      	movs	r3, #0
 8000556:	922a      	str	r2, [sp, #168]	; 0xa8
 8000558:	932b      	str	r3, [sp, #172]	; 0xac
 800055a:	2300      	movs	r3, #0
 800055c:	2200      	movs	r2, #0
 800055e:	2700      	movs	r7, #0
 8000560:	922c      	str	r2, [sp, #176]	; 0xb0
 8000562:	932d      	str	r3, [sp, #180]	; 0xb4
 8000564:	2101      	movs	r1, #1
 8000566:	0002      	movs	r2, r0
 8000568:	0030      	movs	r0, r6
 800056a:	972e      	str	r7, [sp, #184]	; 0xb8
 800056c:	f001 f8cc 	bl	8001708 <LL_TIM_OC_Init>
 8000570:	2204      	movs	r2, #4
 8000572:	4658      	mov	r0, fp
 8000574:	69b3      	ldr	r3, [r6, #24]
 8000576:	4393      	bics	r3, r2
 8000578:	61b3      	str	r3, [r6, #24]
 800057a:	6873      	ldr	r3, [r6, #4]
 800057c:	326c      	adds	r2, #108	; 0x6c
 800057e:	4393      	bics	r3, r2
 8000580:	6073      	str	r3, [r6, #4]
 8000582:	68b3      	ldr	r3, [r6, #8]
 8000584:	2240      	movs	r2, #64	; 0x40
 8000586:	4383      	bics	r3, r0
 8000588:	4640      	mov	r0, r8
 800058a:	60b3      	str	r3, [r6, #8]
 800058c:	6b63      	ldr	r3, [r4, #52]	; 0x34
 800058e:	4303      	orrs	r3, r0
 8000590:	6363      	str	r3, [r4, #52]	; 0x34
 8000592:	6b63      	ldr	r3, [r4, #52]	; 0x34
 8000594:	4003      	ands	r3, r0
 8000596:	9314      	str	r3, [sp, #80]	; 0x50
 8000598:	9b14      	ldr	r3, [sp, #80]	; 0x50
 800059a:	2302      	movs	r3, #2
 800059c:	9220      	str	r2, [sp, #128]	; 0x80
 800059e:	9321      	str	r3, [sp, #132]	; 0x84
 80005a0:	2200      	movs	r2, #0
 80005a2:	2300      	movs	r3, #0
 80005a4:	9222      	str	r2, [sp, #136]	; 0x88
 80005a6:	9323      	str	r3, [sp, #140]	; 0x8c
 80005a8:	2301      	movs	r3, #1
 80005aa:	2200      	movs	r2, #0
 80005ac:	9224      	str	r2, [sp, #144]	; 0x90
 80005ae:	9325      	str	r3, [sp, #148]	; 0x94
 80005b0:	aa20      	add	r2, sp, #128	; 0x80
 80005b2:	0011      	movs	r1, r2
 80005b4:	4648      	mov	r0, r9
 80005b6:	f000 ffa7 	bl	8001508 <LL_GPIO_Init>
 80005ba:	002a      	movs	r2, r5
 80005bc:	4b53      	ldr	r3, [pc, #332]	; (800070c <main+0x440>)
 80005be:	cb51      	ldmia	r3!, {r0, r4, r6}
 80005c0:	c251      	stmia	r2!, {r0, r4, r6}
 80005c2:	0011      	movs	r1, r2
 80005c4:	681a      	ldr	r2, [r3, #0]
 80005c6:	484d      	ldr	r0, [pc, #308]	; (80006fc <main+0x430>)
 80005c8:	600a      	str	r2, [r1, #0]
 80005ca:	4951      	ldr	r1, [pc, #324]	; (8000710 <main+0x444>)
 80005cc:	2490      	movs	r4, #144	; 0x90
 80005ce:	9020      	str	r0, [sp, #128]	; 0x80
 80005d0:	9121      	str	r1, [sp, #132]	; 0x84
 80005d2:	4648      	mov	r0, r9
 80005d4:	9023      	str	r0, [sp, #140]	; 0x8c
 80005d6:	4668      	mov	r0, sp
 80005d8:	1900      	adds	r0, r0, r4
 80005da:	4654      	mov	r4, sl
 80005dc:	9722      	str	r7, [sp, #136]	; 0x88
 80005de:	8004      	strh	r4, [r0, #0]
 80005e0:	4648      	mov	r0, r9
 80005e2:	9025      	str	r0, [sp, #148]	; 0x94
 80005e4:	4668      	mov	r0, sp
 80005e6:	2308      	movs	r3, #8
 80005e8:	3488      	adds	r4, #136	; 0x88
 80005ea:	1900      	adds	r0, r0, r4
 80005ec:	8003      	strh	r3, [r0, #0]
 80005ee:	4648      	mov	r0, r9
 80005f0:	24a0      	movs	r4, #160	; 0xa0
 80005f2:	9027      	str	r0, [sp, #156]	; 0x9c
 80005f4:	4668      	mov	r0, sp
 80005f6:	3318      	adds	r3, #24
 80005f8:	1900      	adds	r0, r0, r4
 80005fa:	8003      	strh	r3, [r0, #0]
 80005fc:	ab0b      	add	r3, sp, #44	; 0x2c
 80005fe:	cd43      	ldmia	r5!, {r0, r1, r6}
 8000600:	c343      	stmia	r3!, {r0, r1, r6}
 8000602:	2102      	movs	r1, #2
 8000604:	601a      	str	r2, [r3, #0]
 8000606:	ab20      	add	r3, sp, #128	; 0x80
 8000608:	9309      	str	r3, [sp, #36]	; 0x24
 800060a:	4b42      	ldr	r3, [pc, #264]	; (8000714 <main+0x448>)
 800060c:	4c42      	ldr	r4, [pc, #264]	; (8000718 <main+0x44c>)
 800060e:	9308      	str	r3, [sp, #32]
 8000610:	4b42      	ldr	r3, [pc, #264]	; (800071c <main+0x450>)
 8000612:	910a      	str	r1, [sp, #40]	; 0x28
 8000614:	9307      	str	r3, [sp, #28]
 8000616:	4b42      	ldr	r3, [pc, #264]	; (8000720 <main+0x454>)
 8000618:	22f0      	movs	r2, #240	; 0xf0
 800061a:	9306      	str	r3, [sp, #24]
 800061c:	4b41      	ldr	r3, [pc, #260]	; (8000724 <main+0x458>)
 800061e:	9704      	str	r7, [sp, #16]
 8000620:	9305      	str	r3, [sp, #20]
 8000622:	23a0      	movs	r3, #160	; 0xa0
 8000624:	005b      	lsls	r3, r3, #1
 8000626:	9301      	str	r3, [sp, #4]
 8000628:	3b50      	subs	r3, #80	; 0x50
 800062a:	9300      	str	r3, [sp, #0]
 800062c:	9703      	str	r7, [sp, #12]
 800062e:	9702      	str	r7, [sp, #8]
 8000630:	a92a      	add	r1, sp, #168	; 0xa8
 8000632:	6820      	ldr	r0, [r4, #0]
 8000634:	f000 faa6 	bl	8000b84 <LCD_DisplayAdd>
 8000638:	4680      	mov	r8, r0
 800063a:	6020      	str	r0, [r4, #0]
 800063c:	f000 fbc6 	bl	8000dcc <LCD_Init>
 8000640:	21ff      	movs	r1, #255	; 0xff
 8000642:	4640      	mov	r0, r8
 8000644:	0409      	lsls	r1, r1, #16
 8000646:	f000 fd4d 	bl	80010e4 <LCD_Fill>
 800064a:	23ff      	movs	r3, #255	; 0xff
 800064c:	9302      	str	r3, [sp, #8]
 800064e:	4b36      	ldr	r3, [pc, #216]	; (8000728 <main+0x45c>)
 8000650:	2200      	movs	r2, #0
 8000652:	9301      	str	r3, [sp, #4]
 8000654:	4b35      	ldr	r3, [pc, #212]	; (800072c <main+0x460>)
 8000656:	2100      	movs	r1, #0
 8000658:	4640      	mov	r0, r8
 800065a:	9300      	str	r3, [sp, #0]
 800065c:	469b      	mov	fp, r3
 800065e:	9703      	str	r7, [sp, #12]
 8000660:	4b33      	ldr	r3, [pc, #204]	; (8000730 <main+0x464>)
 8000662:	f000 fedf 	bl	8001424 <LCD_WriteString>
 8000666:	20fa      	movs	r0, #250	; 0xfa
 8000668:	00c0      	lsls	r0, r0, #3
 800066a:	f001 f9cd 	bl	8001a08 <LL_mDelay>
 800066e:	4b31      	ldr	r3, [pc, #196]	; (8000734 <main+0x468>)
 8000670:	2600      	movs	r6, #0
 8000672:	2500      	movs	r5, #0
 8000674:	2400      	movs	r4, #0
 8000676:	4699      	mov	r9, r3
 8000678:	464b      	mov	r3, r9
 800067a:	681b      	ldr	r3, [r3, #0]
 800067c:	2700      	movs	r7, #0
 800067e:	469a      	mov	sl, r3
 8000680:	022b      	lsls	r3, r5, #8
 8000682:	0421      	lsls	r1, r4, #16
 8000684:	4319      	orrs	r1, r3
 8000686:	4331      	orrs	r1, r6
 8000688:	4640      	mov	r0, r8
 800068a:	f000 fd2b 	bl	80010e4 <LCD_Fill>
 800068e:	464b      	mov	r3, r9
 8000690:	4652      	mov	r2, sl
 8000692:	681b      	ldr	r3, [r3, #0]
 8000694:	3401      	adds	r4, #1
 8000696:	1a9b      	subs	r3, r3, r2
 8000698:	22fa      	movs	r2, #250	; 0xfa
 800069a:	3502      	adds	r5, #2
 800069c:	3604      	adds	r6, #4
 800069e:	b2e4      	uxtb	r4, r4
 80006a0:	b2ed      	uxtb	r5, r5
 80006a2:	b2f6      	uxtb	r6, r6
 80006a4:	3701      	adds	r7, #1
 80006a6:	0092      	lsls	r2, r2, #2
 80006a8:	4293      	cmp	r3, r2
 80006aa:	d3e9      	bcc.n	8000680 <main+0x3b4>
 80006ac:	a918      	add	r1, sp, #96	; 0x60
 80006ae:	220a      	movs	r2, #10
 80006b0:	0038      	movs	r0, r7
 80006b2:	f001 fa27 	bl	8001b04 <utoa>
 80006b6:	2300      	movs	r3, #0
 80006b8:	9303      	str	r3, [sp, #12]
 80006ba:	33ff      	adds	r3, #255	; 0xff
 80006bc:	9302      	str	r3, [sp, #8]
 80006be:	4b1a      	ldr	r3, [pc, #104]	; (8000728 <main+0x45c>)
 80006c0:	4640      	mov	r0, r8
 80006c2:	9301      	str	r3, [sp, #4]
 80006c4:	465b      	mov	r3, fp
 80006c6:	2200      	movs	r2, #0
 80006c8:	e036      	b.n	8000738 <main+0x46c>
 80006ca:	46c0      	nop			; (mov r8, r8)
 80006cc:	40021000 	.word	0x40021000
 80006d0:	fffff904 	.word	0xfffff904
 80006d4:	e000ed00 	.word	0xe000ed00
 80006d8:	20000000 	.word	0x20000000
 80006dc:	e000e010 	.word	0xe000e010
 80006e0:	ffff00ff 	.word	0xffff00ff
 80006e4:	e000e100 	.word	0xe000e100
 80006e8:	40000400 	.word	0x40000400
 80006ec:	40020800 	.word	0x40020800
 80006f0:	40020008 	.word	0x40020008
 80006f4:	ffffbfef 	.word	0xffffbfef
 80006f8:	ffffcfff 	.word	0xffffcfff
 80006fc:	40013000 	.word	0x40013000
 8000700:	fffffcff 	.word	0xfffffcff
 8000704:	fffff3ff 	.word	0xfffff3ff
 8000708:	000003e7 	.word	0x000003e7
 800070c:	08001b38 	.word	0x08001b38
 8000710:	40020000 	.word	0x40020000
 8000714:	08001501 	.word	0x08001501
 8000718:	200000c4 	.word	0x200000c4
 800071c:	080014f9 	.word	0x080014f9
 8000720:	080014d9 	.word	0x080014d9
 8000724:	080014ad 	.word	0x080014ad
 8000728:	00ffff00 	.word	0x00ffff00
 800072c:	20000004 	.word	0x20000004
 8000730:	08001b48 	.word	0x08001b48
 8000734:	200000c0 	.word	0x200000c0
 8000738:	9300      	str	r3, [sp, #0]
 800073a:	2100      	movs	r1, #0
 800073c:	ab18      	add	r3, sp, #96	; 0x60
 800073e:	f000 fe71 	bl	8001424 <LCD_WriteString>
 8000742:	20fa      	movs	r0, #250	; 0xfa
 8000744:	0080      	lsls	r0, r0, #2
 8000746:	f001 f95f 	bl	8001a08 <LL_mDelay>
 800074a:	e795      	b.n	8000678 <main+0x3ac>

0800074c <NMI_Handler>:
 800074c:	e7fe      	b.n	800074c <NMI_Handler>
 800074e:	46c0      	nop			; (mov r8, r8)

08000750 <HardFault_Handler>:
 8000750:	e7fe      	b.n	8000750 <HardFault_Handler>
 8000752:	46c0      	nop			; (mov r8, r8)

08000754 <SVC_Handler>:
 8000754:	4770      	bx	lr
 8000756:	46c0      	nop			; (mov r8, r8)

08000758 <PendSV_Handler>:
 8000758:	4770      	bx	lr
 800075a:	46c0      	nop			; (mov r8, r8)

0800075c <SysTick_Handler>:
 800075c:	4a02      	ldr	r2, [pc, #8]	; (8000768 <SysTick_Handler+0xc>)
 800075e:	6813      	ldr	r3, [r2, #0]
 8000760:	3301      	adds	r3, #1
 8000762:	6013      	str	r3, [r2, #0]
 8000764:	4770      	bx	lr
 8000766:	46c0      	nop			; (mov r8, r8)
 8000768:	200000c0 	.word	0x200000c0

0800076c <DMA1_Channel1_IRQHandler>:
 800076c:	b510      	push	{r4, lr}
 800076e:	2100      	movs	r1, #0
 8000770:	4801      	ldr	r0, [pc, #4]	; (8000778 <DMA1_Channel1_IRQHandler+0xc>)
 8000772:	f000 f82f 	bl	80007d4 <Display_TC_Callback>
 8000776:	bd10      	pop	{r4, pc}
 8000778:	40020000 	.word	0x40020000

0800077c <SystemInit>:
 800077c:	4770      	bx	lr
 800077e:	46c0      	nop			; (mov r8, r8)

08000780 <Reset_Handler>:
 8000780:	480d      	ldr	r0, [pc, #52]	; (80007b8 <LoopForever+0x2>)
 8000782:	4685      	mov	sp, r0
 8000784:	f7ff fffa 	bl	800077c <SystemInit>
 8000788:	480c      	ldr	r0, [pc, #48]	; (80007bc <LoopForever+0x6>)
 800078a:	490d      	ldr	r1, [pc, #52]	; (80007c0 <LoopForever+0xa>)
 800078c:	4a0d      	ldr	r2, [pc, #52]	; (80007c4 <LoopForever+0xe>)
 800078e:	2300      	movs	r3, #0
 8000790:	e002      	b.n	8000798 <LoopCopyDataInit>

08000792 <CopyDataInit>:
 8000792:	58d4      	ldr	r4, [r2, r3]
 8000794:	50c4      	str	r4, [r0, r3]
 8000796:	3304      	adds	r3, #4

08000798 <LoopCopyDataInit>:
 8000798:	18c4      	adds	r4, r0, r3
 800079a:	428c      	cmp	r4, r1
 800079c:	d3f9      	bcc.n	8000792 <CopyDataInit>
 800079e:	4a0a      	ldr	r2, [pc, #40]	; (80007c8 <LoopForever+0x12>)
 80007a0:	4c0a      	ldr	r4, [pc, #40]	; (80007cc <LoopForever+0x16>)
 80007a2:	2300      	movs	r3, #0
 80007a4:	e001      	b.n	80007aa <LoopFillZerobss>

080007a6 <FillZerobss>:
 80007a6:	6013      	str	r3, [r2, #0]
 80007a8:	3204      	adds	r2, #4

080007aa <LoopFillZerobss>:
 80007aa:	42a2      	cmp	r2, r4
 80007ac:	d3fb      	bcc.n	80007a6 <FillZerobss>
 80007ae:	f001 f947 	bl	8001a40 <__libc_init_array>
 80007b2:	f7ff fd8b 	bl	80002cc <main>

080007b6 <LoopForever>:
 80007b6:	e7fe      	b.n	80007b6 <LoopForever>
 80007b8:	20002000 	.word	0x20002000
 80007bc:	20000000 	.word	0x20000000
 80007c0:	200000a4 	.word	0x200000a4
 80007c4:	080026f0 	.word	0x080026f0
 80007c8:	200000a4 	.word	0x200000a4
 80007cc:	200000c8 	.word	0x200000c8

080007d0 <ADC1_IRQHandler>:
 80007d0:	e7fe      	b.n	80007d0 <ADC1_IRQHandler>
	...

080007d4 <Display_TC_Callback>:
 80007d4:	2301      	movs	r3, #1
 80007d6:	b570      	push	{r4, r5, r6, lr}
 80007d8:	008c      	lsls	r4, r1, #2
 80007da:	40a3      	lsls	r3, r4
 80007dc:	6842      	ldr	r2, [r0, #4]
 80007de:	4313      	orrs	r3, r2
 80007e0:	6043      	str	r3, [r0, #4]
 80007e2:	4b2c      	ldr	r3, [pc, #176]	; (8000894 <Display_TC_Callback+0xc0>)
 80007e4:	681b      	ldr	r3, [r3, #0]
 80007e6:	2b00      	cmp	r3, #0
 80007e8:	d040      	beq.n	800086c <Display_TC_Callback+0x98>
 80007ea:	2544      	movs	r5, #68	; 0x44
 80007ec:	4a2a      	ldr	r2, [pc, #168]	; (8000898 <Display_TC_Callback+0xc4>)
 80007ee:	e002      	b.n	80007f6 <Display_TC_Callback+0x22>
 80007f0:	589b      	ldr	r3, [r3, r2]
 80007f2:	2b00      	cmp	r3, #0
 80007f4:	d03a      	beq.n	800086c <Display_TC_Callback+0x98>
 80007f6:	6a9c      	ldr	r4, [r3, #40]	; 0x28
 80007f8:	42a0      	cmp	r0, r4
 80007fa:	d1f9      	bne.n	80007f0 <Display_TC_Callback+0x1c>
 80007fc:	6adc      	ldr	r4, [r3, #44]	; 0x2c
 80007fe:	42a1      	cmp	r1, r4
 8000800:	d1f6      	bne.n	80007f0 <Display_TC_Callback+0x1c>
 8000802:	6c1c      	ldr	r4, [r3, #64]	; 0x40
 8000804:	2c00      	cmp	r4, #0
 8000806:	d003      	beq.n	8000810 <Display_TC_Callback+0x3c>
 8000808:	6966      	ldr	r6, [r4, #20]
 800080a:	5b5c      	ldrh	r4, [r3, r5]
 800080c:	4226      	tst	r6, r4
 800080e:	d1ef      	bne.n	80007f0 <Display_TC_Callback+0x1c>
 8000810:	4a22      	ldr	r2, [pc, #136]	; (800089c <Display_TC_Callback+0xc8>)
 8000812:	5c52      	ldrb	r2, [r2, r1]
 8000814:	2101      	movs	r1, #1
 8000816:	1880      	adds	r0, r0, r2
 8000818:	6802      	ldr	r2, [r0, #0]
 800081a:	438a      	bics	r2, r1
 800081c:	6002      	str	r2, [r0, #0]
 800081e:	6802      	ldr	r2, [r0, #0]
 8000820:	4211      	tst	r1, r2
 8000822:	d003      	beq.n	800082c <Display_TC_Callback+0x58>
 8000824:	46c0      	nop			; (mov r8, r8)
 8000826:	6802      	ldr	r2, [r0, #0]
 8000828:	4211      	tst	r1, r2
 800082a:	d1fb      	bne.n	8000824 <Display_TC_Callback+0x50>
 800082c:	491c      	ldr	r1, [pc, #112]	; (80008a0 <Display_TC_Callback+0xcc>)
 800082e:	585a      	ldr	r2, [r3, r1]
 8000830:	2a00      	cmp	r2, #0
 8000832:	d11c      	bne.n	800086e <Display_TC_Callback+0x9a>
 8000834:	2002      	movs	r0, #2
 8000836:	6a5a      	ldr	r2, [r3, #36]	; 0x24
 8000838:	6851      	ldr	r1, [r2, #4]
 800083a:	4381      	bics	r1, r0
 800083c:	6051      	str	r1, [r2, #4]
 800083e:	6891      	ldr	r1, [r2, #8]
 8000840:	0609      	lsls	r1, r1, #24
 8000842:	d505      	bpl.n	8000850 <Display_TC_Callback+0x7c>
 8000844:	307e      	adds	r0, #126	; 0x7e
 8000846:	46c0      	nop			; (mov r8, r8)
 8000848:	6a5a      	ldr	r2, [r3, #36]	; 0x24
 800084a:	6891      	ldr	r1, [r2, #8]
 800084c:	4208      	tst	r0, r1
 800084e:	d1fa      	bne.n	8000846 <Display_TC_Callback+0x72>
 8000850:	4914      	ldr	r1, [pc, #80]	; (80008a4 <Display_TC_Callback+0xd0>)
 8000852:	5c59      	ldrb	r1, [r3, r1]
 8000854:	2900      	cmp	r1, #0
 8000856:	d105      	bne.n	8000864 <Display_TC_Callback+0x90>
 8000858:	6c19      	ldr	r1, [r3, #64]	; 0x40
 800085a:	2900      	cmp	r1, #0
 800085c:	d002      	beq.n	8000864 <Display_TC_Callback+0x90>
 800085e:	2044      	movs	r0, #68	; 0x44
 8000860:	5a1b      	ldrh	r3, [r3, r0]
 8000862:	618b      	str	r3, [r1, #24]
 8000864:	2140      	movs	r1, #64	; 0x40
 8000866:	6813      	ldr	r3, [r2, #0]
 8000868:	438b      	bics	r3, r1
 800086a:	6013      	str	r3, [r2, #0]
 800086c:	bd70      	pop	{r4, r5, r6, pc}
 800086e:	2480      	movs	r4, #128	; 0x80
 8000870:	0264      	lsls	r4, r4, #9
 8000872:	42a2      	cmp	r2, r4
 8000874:	d207      	bcs.n	8000886 <Display_TC_Callback+0xb2>
 8000876:	6042      	str	r2, [r0, #4]
 8000878:	2200      	movs	r2, #0
 800087a:	505a      	str	r2, [r3, r1]
 800087c:	2201      	movs	r2, #1
 800087e:	6803      	ldr	r3, [r0, #0]
 8000880:	4313      	orrs	r3, r2
 8000882:	6003      	str	r3, [r0, #0]
 8000884:	e7f2      	b.n	800086c <Display_TC_Callback+0x98>
 8000886:	4c08      	ldr	r4, [pc, #32]	; (80008a8 <Display_TC_Callback+0xd4>)
 8000888:	6044      	str	r4, [r0, #4]
 800088a:	4c08      	ldr	r4, [pc, #32]	; (80008ac <Display_TC_Callback+0xd8>)
 800088c:	46a4      	mov	ip, r4
 800088e:	4462      	add	r2, ip
 8000890:	505a      	str	r2, [r3, r1]
 8000892:	e7f3      	b.n	800087c <Display_TC_Callback+0xa8>
 8000894:	200000c4 	.word	0x200000c4
 8000898:	0000064c 	.word	0x0000064c
 800089c:	08001b58 	.word	0x08001b58
 80008a0:	0000063c 	.word	0x0000063c
 80008a4:	00000641 	.word	0x00000641
 80008a8:	0000ffff 	.word	0x0000ffff
 80008ac:	ffff0001 	.word	0xffff0001

080008b0 <LCD_String_Interpretator>:
 80008b0:	b5f0      	push	{r4, r5, r6, r7, lr}
 80008b2:	4645      	mov	r5, r8
 80008b4:	46de      	mov	lr, fp
 80008b6:	4657      	mov	r7, sl
 80008b8:	464e      	mov	r6, r9
 80008ba:	b5e0      	push	{r5, r6, r7, lr}
 80008bc:	6a43      	ldr	r3, [r0, #36]	; 0x24
 80008be:	b083      	sub	sp, #12
 80008c0:	9301      	str	r3, [sp, #4]
 80008c2:	681b      	ldr	r3, [r3, #0]
 80008c4:	0005      	movs	r5, r0
 80008c6:	2240      	movs	r2, #64	; 0x40
 80008c8:	065b      	lsls	r3, r3, #25
 80008ca:	d43c      	bmi.n	8000946 <LCD_String_Interpretator+0x96>
 80008cc:	4b5c      	ldr	r3, [pc, #368]	; (8000a40 <LCD_String_Interpretator+0x190>)
 80008ce:	5ceb      	ldrb	r3, [r5, r3]
 80008d0:	2b00      	cmp	r3, #0
 80008d2:	d106      	bne.n	80008e2 <LCD_String_Interpretator+0x32>
 80008d4:	6c2b      	ldr	r3, [r5, #64]	; 0x40
 80008d6:	2b00      	cmp	r3, #0
 80008d8:	d003      	beq.n	80008e2 <LCD_String_Interpretator+0x32>
 80008da:	2244      	movs	r2, #68	; 0x44
 80008dc:	5aaa      	ldrh	r2, [r5, r2]
 80008de:	0412      	lsls	r2, r2, #16
 80008e0:	619a      	str	r2, [r3, #24]
 80008e2:	9801      	ldr	r0, [sp, #4]
 80008e4:	4a57      	ldr	r2, [pc, #348]	; (8000a44 <LCD_String_Interpretator+0x194>)
 80008e6:	6803      	ldr	r3, [r0, #0]
 80008e8:	2480      	movs	r4, #128	; 0x80
 80008ea:	4013      	ands	r3, r2
 80008ec:	6003      	str	r3, [r0, #0]
 80008ee:	6843      	ldr	r3, [r0, #4]
 80008f0:	4a55      	ldr	r2, [pc, #340]	; (8000a48 <LCD_String_Interpretator+0x198>)
 80008f2:	4e56      	ldr	r6, [pc, #344]	; (8000a4c <LCD_String_Interpretator+0x19c>)
 80008f4:	4013      	ands	r3, r2
 80008f6:	6043      	str	r3, [r0, #4]
 80008f8:	23e0      	movs	r3, #224	; 0xe0
 80008fa:	6842      	ldr	r2, [r0, #4]
 80008fc:	00db      	lsls	r3, r3, #3
 80008fe:	4313      	orrs	r3, r2
 8000900:	2240      	movs	r2, #64	; 0x40
 8000902:	6043      	str	r3, [r0, #4]
 8000904:	6803      	ldr	r3, [r0, #0]
 8000906:	4313      	orrs	r3, r2
 8000908:	6003      	str	r3, [r0, #0]
 800090a:	780b      	ldrb	r3, [r1, #0]
 800090c:	2b01      	cmp	r3, #1
 800090e:	d065      	beq.n	80009dc <LCD_String_Interpretator+0x12c>
 8000910:	2b02      	cmp	r3, #2
 8000912:	d100      	bne.n	8000916 <LCD_String_Interpretator+0x66>
 8000914:	e08a      	b.n	8000a2c <LCD_String_Interpretator+0x17c>
 8000916:	2b00      	cmp	r3, #0
 8000918:	d020      	beq.n	800095c <LCD_String_Interpretator+0xac>
 800091a:	4b49      	ldr	r3, [pc, #292]	; (8000a40 <LCD_String_Interpretator+0x190>)
 800091c:	5ceb      	ldrb	r3, [r5, r3]
 800091e:	2b00      	cmp	r3, #0
 8000920:	d105      	bne.n	800092e <LCD_String_Interpretator+0x7e>
 8000922:	6c2b      	ldr	r3, [r5, #64]	; 0x40
 8000924:	2b00      	cmp	r3, #0
 8000926:	d002      	beq.n	800092e <LCD_String_Interpretator+0x7e>
 8000928:	2244      	movs	r2, #68	; 0x44
 800092a:	5aaa      	ldrh	r2, [r5, r2]
 800092c:	619a      	str	r2, [r3, #24]
 800092e:	2240      	movs	r2, #64	; 0x40
 8000930:	9901      	ldr	r1, [sp, #4]
 8000932:	680b      	ldr	r3, [r1, #0]
 8000934:	4393      	bics	r3, r2
 8000936:	600b      	str	r3, [r1, #0]
 8000938:	b003      	add	sp, #12
 800093a:	bcf0      	pop	{r4, r5, r6, r7}
 800093c:	46bb      	mov	fp, r7
 800093e:	46b2      	mov	sl, r6
 8000940:	46a9      	mov	r9, r5
 8000942:	46a0      	mov	r8, r4
 8000944:	bdf0      	pop	{r4, r5, r6, r7, pc}
 8000946:	46c0      	nop			; (mov r8, r8)
 8000948:	6a6b      	ldr	r3, [r5, #36]	; 0x24
 800094a:	681b      	ldr	r3, [r3, #0]
 800094c:	421a      	tst	r2, r3
 800094e:	d0bd      	beq.n	80008cc <LCD_String_Interpretator+0x1c>
 8000950:	46c0      	nop			; (mov r8, r8)
 8000952:	6a6b      	ldr	r3, [r5, #36]	; 0x24
 8000954:	681b      	ldr	r3, [r3, #0]
 8000956:	421a      	tst	r2, r3
 8000958:	d0b8      	beq.n	80008cc <LCD_String_Interpretator+0x1c>
 800095a:	e7f4      	b.n	8000946 <LCD_String_Interpretator+0x96>
 800095c:	8faa      	ldrh	r2, [r5, #60]	; 0x3c
 800095e:	7848      	ldrb	r0, [r1, #1]
 8000960:	6baf      	ldr	r7, [r5, #56]	; 0x38
 8000962:	6a6b      	ldr	r3, [r5, #36]	; 0x24
 8000964:	0412      	lsls	r2, r2, #16
 8000966:	61ba      	str	r2, [r7, #24]
 8000968:	7330      	strb	r0, [r6, #12]
 800096a:	689a      	ldr	r2, [r3, #8]
 800096c:	0792      	lsls	r2, r2, #30
 800096e:	d408      	bmi.n	8000982 <LCD_String_Interpretator+0xd2>
 8000970:	2002      	movs	r0, #2
 8000972:	46c0      	nop			; (mov r8, r8)
 8000974:	689a      	ldr	r2, [r3, #8]
 8000976:	4210      	tst	r0, r2
 8000978:	d0fb      	beq.n	8000972 <LCD_String_Interpretator+0xc2>
 800097a:	689a      	ldr	r2, [r3, #8]
 800097c:	4214      	tst	r4, r2
 800097e:	d003      	beq.n	8000988 <LCD_String_Interpretator+0xd8>
 8000980:	46c0      	nop			; (mov r8, r8)
 8000982:	689a      	ldr	r2, [r3, #8]
 8000984:	4214      	tst	r4, r2
 8000986:	d1fb      	bne.n	8000980 <LCD_String_Interpretator+0xd0>
 8000988:	1ccb      	adds	r3, r1, #3
 800098a:	4698      	mov	r8, r3
 800098c:	788b      	ldrb	r3, [r1, #2]
 800098e:	469c      	mov	ip, r3
 8000990:	2b00      	cmp	r3, #0
 8000992:	d052      	beq.n	8000a3a <LCD_String_Interpretator+0x18a>
 8000994:	46c1      	mov	r9, r8
 8000996:	4640      	mov	r0, r8
 8000998:	2102      	movs	r1, #2
 800099a:	44e1      	add	r9, ip
 800099c:	8faf      	ldrh	r7, [r5, #60]	; 0x3c
 800099e:	7803      	ldrb	r3, [r0, #0]
 80009a0:	46bb      	mov	fp, r7
 80009a2:	469a      	mov	sl, r3
 80009a4:	465a      	mov	r2, fp
 80009a6:	6baf      	ldr	r7, [r5, #56]	; 0x38
 80009a8:	6a6b      	ldr	r3, [r5, #36]	; 0x24
 80009aa:	61ba      	str	r2, [r7, #24]
 80009ac:	4652      	mov	r2, sl
 80009ae:	7332      	strb	r2, [r6, #12]
 80009b0:	689a      	ldr	r2, [r3, #8]
 80009b2:	4211      	tst	r1, r2
 80009b4:	d107      	bne.n	80009c6 <LCD_String_Interpretator+0x116>
 80009b6:	46c0      	nop			; (mov r8, r8)
 80009b8:	689a      	ldr	r2, [r3, #8]
 80009ba:	4211      	tst	r1, r2
 80009bc:	d0fb      	beq.n	80009b6 <LCD_String_Interpretator+0x106>
 80009be:	689a      	ldr	r2, [r3, #8]
 80009c0:	4214      	tst	r4, r2
 80009c2:	d003      	beq.n	80009cc <LCD_String_Interpretator+0x11c>
 80009c4:	46c0      	nop			; (mov r8, r8)
 80009c6:	689a      	ldr	r2, [r3, #8]
 80009c8:	4214      	tst	r4, r2
 80009ca:	d1fb      	bne.n	80009c4 <LCD_String_Interpretator+0x114>
 80009cc:	3001      	adds	r0, #1
 80009ce:	4581      	cmp	r9, r0
 80009d0:	d1e4      	bne.n	800099c <LCD_String_Interpretator+0xec>
 80009d2:	4641      	mov	r1, r8
 80009d4:	4461      	add	r1, ip
 80009d6:	780b      	ldrb	r3, [r1, #0]
 80009d8:	2b01      	cmp	r3, #1
 80009da:	d199      	bne.n	8000910 <LCD_String_Interpretator+0x60>
 80009dc:	1c8b      	adds	r3, r1, #2
 80009de:	4698      	mov	r8, r3
 80009e0:	784b      	ldrb	r3, [r1, #1]
 80009e2:	469c      	mov	ip, r3
 80009e4:	2b00      	cmp	r3, #0
 80009e6:	d028      	beq.n	8000a3a <LCD_String_Interpretator+0x18a>
 80009e8:	46c1      	mov	r9, r8
 80009ea:	4640      	mov	r0, r8
 80009ec:	2102      	movs	r1, #2
 80009ee:	44e1      	add	r9, ip
 80009f0:	8faf      	ldrh	r7, [r5, #60]	; 0x3c
 80009f2:	7803      	ldrb	r3, [r0, #0]
 80009f4:	46bb      	mov	fp, r7
 80009f6:	469a      	mov	sl, r3
 80009f8:	465a      	mov	r2, fp
 80009fa:	6baf      	ldr	r7, [r5, #56]	; 0x38
 80009fc:	6a6b      	ldr	r3, [r5, #36]	; 0x24
 80009fe:	61ba      	str	r2, [r7, #24]
 8000a00:	4652      	mov	r2, sl
 8000a02:	7332      	strb	r2, [r6, #12]
 8000a04:	689a      	ldr	r2, [r3, #8]
 8000a06:	4211      	tst	r1, r2
 8000a08:	d107      	bne.n	8000a1a <LCD_String_Interpretator+0x16a>
 8000a0a:	46c0      	nop			; (mov r8, r8)
 8000a0c:	689a      	ldr	r2, [r3, #8]
 8000a0e:	4211      	tst	r1, r2
 8000a10:	d0fb      	beq.n	8000a0a <LCD_String_Interpretator+0x15a>
 8000a12:	689a      	ldr	r2, [r3, #8]
 8000a14:	4214      	tst	r4, r2
 8000a16:	d003      	beq.n	8000a20 <LCD_String_Interpretator+0x170>
 8000a18:	46c0      	nop			; (mov r8, r8)
 8000a1a:	689a      	ldr	r2, [r3, #8]
 8000a1c:	4214      	tst	r4, r2
 8000a1e:	d1fb      	bne.n	8000a18 <LCD_String_Interpretator+0x168>
 8000a20:	3001      	adds	r0, #1
 8000a22:	4548      	cmp	r0, r9
 8000a24:	d1e4      	bne.n	80009f0 <LCD_String_Interpretator+0x140>
 8000a26:	4641      	mov	r1, r8
 8000a28:	4461      	add	r1, ip
 8000a2a:	e7d4      	b.n	80009d6 <LCD_String_Interpretator+0x126>
 8000a2c:	1c8b      	adds	r3, r1, #2
 8000a2e:	4698      	mov	r8, r3
 8000a30:	7848      	ldrb	r0, [r1, #1]
 8000a32:	f000 ffe9 	bl	8001a08 <LL_mDelay>
 8000a36:	4641      	mov	r1, r8
 8000a38:	e767      	b.n	800090a <LCD_String_Interpretator+0x5a>
 8000a3a:	4641      	mov	r1, r8
 8000a3c:	e765      	b.n	800090a <LCD_String_Interpretator+0x5a>
 8000a3e:	46c0      	nop			; (mov r8, r8)
 8000a40:	00000641 	.word	0x00000641
 8000a44:	ffff5bff 	.word	0xffff5bff
 8000a48:	fffff0ff 	.word	0xfffff0ff
 8000a4c:	40013000 	.word	0x40013000

08000a50 <LCD_DrawPixel.part.0>:
 8000a50:	b570      	push	{r4, r5, r6, lr}
 8000a52:	0004      	movs	r4, r0
 8000a54:	8940      	ldrh	r0, [r0, #10]
 8000a56:	001d      	movs	r5, r3
 8000a58:	1840      	adds	r0, r0, r1
 8000a5a:	89a1      	ldrh	r1, [r4, #12]
 8000a5c:	b280      	uxth	r0, r0
 8000a5e:	1889      	adds	r1, r1, r2
 8000a60:	b289      	uxth	r1, r1
 8000a62:	000b      	movs	r3, r1
 8000a64:	0002      	movs	r2, r0
 8000a66:	69a6      	ldr	r6, [r4, #24]
 8000a68:	47b0      	blx	r6
 8000a6a:	0001      	movs	r1, r0
 8000a6c:	0020      	movs	r0, r4
 8000a6e:	f7ff ff1f 	bl	80008b0 <LCD_String_Interpretator>
 8000a72:	0ceb      	lsrs	r3, r5, #19
 8000a74:	b2ea      	uxtb	r2, r5
 8000a76:	02db      	lsls	r3, r3, #11
 8000a78:	08d2      	lsrs	r2, r2, #3
 8000a7a:	431a      	orrs	r2, r3
 8000a7c:	23fc      	movs	r3, #252	; 0xfc
 8000a7e:	096d      	lsrs	r5, r5, #5
 8000a80:	00db      	lsls	r3, r3, #3
 8000a82:	401d      	ands	r5, r3
 8000a84:	2348      	movs	r3, #72	; 0x48
 8000a86:	5ce0      	ldrb	r0, [r4, r3]
 8000a88:	432a      	orrs	r2, r5
 8000a8a:	b292      	uxth	r2, r2
 8000a8c:	2801      	cmp	r0, #1
 8000a8e:	d101      	bne.n	8000a94 <LCD_DrawPixel.part.0+0x44>
 8000a90:	ba52      	rev16	r2, r2
 8000a92:	b292      	uxth	r2, r2
 8000a94:	6a63      	ldr	r3, [r4, #36]	; 0x24
 8000a96:	6819      	ldr	r1, [r3, #0]
 8000a98:	0649      	lsls	r1, r1, #25
 8000a9a:	d462      	bmi.n	8000b62 <LCD_DrawPixel.part.0+0x112>
 8000a9c:	4935      	ldr	r1, [pc, #212]	; (8000b74 <LCD_DrawPixel.part.0+0x124>)
 8000a9e:	5c61      	ldrb	r1, [r4, r1]
 8000aa0:	2900      	cmp	r1, #0
 8000aa2:	d106      	bne.n	8000ab2 <LCD_DrawPixel.part.0+0x62>
 8000aa4:	6c25      	ldr	r5, [r4, #64]	; 0x40
 8000aa6:	2d00      	cmp	r5, #0
 8000aa8:	d003      	beq.n	8000ab2 <LCD_DrawPixel.part.0+0x62>
 8000aaa:	2144      	movs	r1, #68	; 0x44
 8000aac:	5a61      	ldrh	r1, [r4, r1]
 8000aae:	0409      	lsls	r1, r1, #16
 8000ab0:	61a9      	str	r1, [r5, #24]
 8000ab2:	4931      	ldr	r1, [pc, #196]	; (8000b78 <LCD_DrawPixel.part.0+0x128>)
 8000ab4:	5c61      	ldrb	r1, [r4, r1]
 8000ab6:	2900      	cmp	r1, #0
 8000ab8:	d102      	bne.n	8000ac0 <LCD_DrawPixel.part.0+0x70>
 8000aba:	6ba1      	ldr	r1, [r4, #56]	; 0x38
 8000abc:	8fa5      	ldrh	r5, [r4, #60]	; 0x3c
 8000abe:	618d      	str	r5, [r1, #24]
 8000ac0:	6819      	ldr	r1, [r3, #0]
 8000ac2:	4d2e      	ldr	r5, [pc, #184]	; (8000b7c <LCD_DrawPixel.part.0+0x12c>)
 8000ac4:	4029      	ands	r1, r5
 8000ac6:	6019      	str	r1, [r3, #0]
 8000ac8:	6859      	ldr	r1, [r3, #4]
 8000aca:	4d2d      	ldr	r5, [pc, #180]	; (8000b80 <LCD_DrawPixel.part.0+0x130>)
 8000acc:	4029      	ands	r1, r5
 8000ace:	6059      	str	r1, [r3, #4]
 8000ad0:	2802      	cmp	r0, #2
 8000ad2:	d033      	beq.n	8000b3c <LCD_DrawPixel.part.0+0xec>
 8000ad4:	21e0      	movs	r1, #224	; 0xe0
 8000ad6:	6858      	ldr	r0, [r3, #4]
 8000ad8:	00c9      	lsls	r1, r1, #3
 8000ada:	4301      	orrs	r1, r0
 8000adc:	2040      	movs	r0, #64	; 0x40
 8000ade:	6059      	str	r1, [r3, #4]
 8000ae0:	6819      	ldr	r1, [r3, #0]
 8000ae2:	4301      	orrs	r1, r0
 8000ae4:	6019      	str	r1, [r3, #0]
 8000ae6:	b2d1      	uxtb	r1, r2
 8000ae8:	7319      	strb	r1, [r3, #12]
 8000aea:	6899      	ldr	r1, [r3, #8]
 8000aec:	383e      	subs	r0, #62	; 0x3e
 8000aee:	0789      	lsls	r1, r1, #30
 8000af0:	d403      	bmi.n	8000afa <LCD_DrawPixel.part.0+0xaa>
 8000af2:	46c0      	nop			; (mov r8, r8)
 8000af4:	6899      	ldr	r1, [r3, #8]
 8000af6:	4208      	tst	r0, r1
 8000af8:	d0fb      	beq.n	8000af2 <LCD_DrawPixel.part.0+0xa2>
 8000afa:	0a12      	lsrs	r2, r2, #8
 8000afc:	731a      	strb	r2, [r3, #12]
 8000afe:	689a      	ldr	r2, [r3, #8]
 8000b00:	2102      	movs	r1, #2
 8000b02:	0792      	lsls	r2, r2, #30
 8000b04:	d403      	bmi.n	8000b0e <LCD_DrawPixel.part.0+0xbe>
 8000b06:	46c0      	nop			; (mov r8, r8)
 8000b08:	689a      	ldr	r2, [r3, #8]
 8000b0a:	4211      	tst	r1, r2
 8000b0c:	d0fb      	beq.n	8000b06 <LCD_DrawPixel.part.0+0xb6>
 8000b0e:	689a      	ldr	r2, [r3, #8]
 8000b10:	2180      	movs	r1, #128	; 0x80
 8000b12:	0612      	lsls	r2, r2, #24
 8000b14:	d503      	bpl.n	8000b1e <LCD_DrawPixel.part.0+0xce>
 8000b16:	46c0      	nop			; (mov r8, r8)
 8000b18:	689a      	ldr	r2, [r3, #8]
 8000b1a:	4211      	tst	r1, r2
 8000b1c:	d1fb      	bne.n	8000b16 <LCD_DrawPixel.part.0+0xc6>
 8000b1e:	4a15      	ldr	r2, [pc, #84]	; (8000b74 <LCD_DrawPixel.part.0+0x124>)
 8000b20:	5ca2      	ldrb	r2, [r4, r2]
 8000b22:	2a00      	cmp	r2, #0
 8000b24:	d105      	bne.n	8000b32 <LCD_DrawPixel.part.0+0xe2>
 8000b26:	6c22      	ldr	r2, [r4, #64]	; 0x40
 8000b28:	2a00      	cmp	r2, #0
 8000b2a:	d002      	beq.n	8000b32 <LCD_DrawPixel.part.0+0xe2>
 8000b2c:	2144      	movs	r1, #68	; 0x44
 8000b2e:	5a61      	ldrh	r1, [r4, r1]
 8000b30:	6191      	str	r1, [r2, #24]
 8000b32:	2140      	movs	r1, #64	; 0x40
 8000b34:	681a      	ldr	r2, [r3, #0]
 8000b36:	438a      	bics	r2, r1
 8000b38:	601a      	str	r2, [r3, #0]
 8000b3a:	bd70      	pop	{r4, r5, r6, pc}
 8000b3c:	21f0      	movs	r1, #240	; 0xf0
 8000b3e:	685d      	ldr	r5, [r3, #4]
 8000b40:	0109      	lsls	r1, r1, #4
 8000b42:	4329      	orrs	r1, r5
 8000b44:	2540      	movs	r5, #64	; 0x40
 8000b46:	6059      	str	r1, [r3, #4]
 8000b48:	6819      	ldr	r1, [r3, #0]
 8000b4a:	4329      	orrs	r1, r5
 8000b4c:	6019      	str	r1, [r3, #0]
 8000b4e:	819a      	strh	r2, [r3, #12]
 8000b50:	689a      	ldr	r2, [r3, #8]
 8000b52:	2102      	movs	r1, #2
 8000b54:	4210      	tst	r0, r2
 8000b56:	d1da      	bne.n	8000b0e <LCD_DrawPixel.part.0+0xbe>
 8000b58:	46c0      	nop			; (mov r8, r8)
 8000b5a:	689a      	ldr	r2, [r3, #8]
 8000b5c:	4211      	tst	r1, r2
 8000b5e:	d0fb      	beq.n	8000b58 <LCD_DrawPixel.part.0+0x108>
 8000b60:	e7d5      	b.n	8000b0e <LCD_DrawPixel.part.0+0xbe>
 8000b62:	2040      	movs	r0, #64	; 0x40
 8000b64:	46c0      	nop			; (mov r8, r8)
 8000b66:	6a61      	ldr	r1, [r4, #36]	; 0x24
 8000b68:	6809      	ldr	r1, [r1, #0]
 8000b6a:	4208      	tst	r0, r1
 8000b6c:	d1fa      	bne.n	8000b64 <LCD_DrawPixel.part.0+0x114>
 8000b6e:	2148      	movs	r1, #72	; 0x48
 8000b70:	5c60      	ldrb	r0, [r4, r1]
 8000b72:	e793      	b.n	8000a9c <LCD_DrawPixel.part.0+0x4c>
 8000b74:	00000641 	.word	0x00000641
 8000b78:	00000642 	.word	0x00000642
 8000b7c:	ffff5bff 	.word	0xffff5bff
 8000b80:	fffff0ff 	.word	0xfffff0ff

08000b84 <LCD_DisplayAdd>:
 8000b84:	b5f0      	push	{r4, r5, r6, r7, lr}
 8000b86:	4657      	mov	r7, sl
 8000b88:	464e      	mov	r6, r9
 8000b8a:	46de      	mov	lr, fp
 8000b8c:	4645      	mov	r5, r8
 8000b8e:	b5e0      	push	{r5, r6, r7, lr}
 8000b90:	b085      	sub	sp, #20
 8000b92:	001e      	movs	r6, r3
 8000b94:	ab0e      	add	r3, sp, #56	; 0x38
 8000b96:	881b      	ldrh	r3, [r3, #0]
 8000b98:	0017      	movs	r7, r2
 8000b9a:	4699      	mov	r9, r3
 8000b9c:	ab0f      	add	r3, sp, #60	; 0x3c
 8000b9e:	881b      	ldrh	r3, [r3, #0]
 8000ba0:	000c      	movs	r4, r1
 8000ba2:	4698      	mov	r8, r3
 8000ba4:	ab10      	add	r3, sp, #64	; 0x40
 8000ba6:	2200      	movs	r2, #0
 8000ba8:	5e9b      	ldrsh	r3, [r3, r2]
 8000baa:	9001      	str	r0, [sp, #4]
 8000bac:	9302      	str	r3, [sp, #8]
 8000bae:	ab11      	add	r3, sp, #68	; 0x44
 8000bb0:	2200      	movs	r2, #0
 8000bb2:	5e9b      	ldrsh	r3, [r3, r2]
 8000bb4:	9303      	str	r3, [sp, #12]
 8000bb6:	ab12      	add	r3, sp, #72	; 0x48
 8000bb8:	781b      	ldrb	r3, [r3, #0]
 8000bba:	469b      	mov	fp, r3
 8000bbc:	ab18      	add	r3, sp, #96	; 0x60
 8000bbe:	781b      	ldrb	r3, [r3, #0]
 8000bc0:	469a      	mov	sl, r3
 8000bc2:	2900      	cmp	r1, #0
 8000bc4:	d100      	bne.n	8000bc8 <LCD_DisplayAdd+0x44>
 8000bc6:	e0f8      	b.n	8000dba <LCD_DisplayAdd+0x236>
 8000bc8:	22ca      	movs	r2, #202	; 0xca
 8000bca:	2100      	movs	r1, #0
 8000bcc:	00d2      	lsls	r2, r2, #3
 8000bce:	0020      	movs	r0, r4
 8000bd0:	f000 ff5a 	bl	8001a88 <memset>
 8000bd4:	2348      	movs	r3, #72	; 0x48
 8000bd6:	4652      	mov	r2, sl
 8000bd8:	54e2      	strb	r2, [r4, r3]
 8000bda:	0022      	movs	r2, r4
 8000bdc:	9b17      	ldr	r3, [sp, #92]	; 0x5c
 8000bde:	3224      	adds	r2, #36	; 0x24
 8000be0:	cb23      	ldmia	r3!, {r0, r1, r5}
 8000be2:	c223      	stmia	r2!, {r0, r1, r5}
 8000be4:	cb23      	ldmia	r3!, {r0, r1, r5}
 8000be6:	c223      	stmia	r2!, {r0, r1, r5}
 8000be8:	cb23      	ldmia	r3!, {r0, r1, r5}
 8000bea:	c223      	stmia	r2!, {r0, r1, r5}
 8000bec:	6aa3      	ldr	r3, [r4, #40]	; 0x28
 8000bee:	2b00      	cmp	r3, #0
 8000bf0:	d038      	beq.n	8000c64 <LCD_DisplayAdd+0xe0>
 8000bf2:	6ae1      	ldr	r1, [r4, #44]	; 0x2c
 8000bf4:	4a72      	ldr	r2, [pc, #456]	; (8000dc0 <LCD_DisplayAdd+0x23c>)
 8000bf6:	5c52      	ldrb	r2, [r2, r1]
 8000bf8:	2101      	movs	r1, #1
 8000bfa:	189b      	adds	r3, r3, r2
 8000bfc:	681a      	ldr	r2, [r3, #0]
 8000bfe:	438a      	bics	r2, r1
 8000c00:	601a      	str	r2, [r3, #0]
 8000c02:	681a      	ldr	r2, [r3, #0]
 8000c04:	4211      	tst	r1, r2
 8000c06:	d008      	beq.n	8000c1a <LCD_DisplayAdd+0x96>
 8000c08:	9d01      	ldr	r5, [sp, #4]
 8000c0a:	46c0      	nop			; (mov r8, r8)
 8000c0c:	681a      	ldr	r2, [r3, #0]
 8000c0e:	4211      	tst	r1, r2
 8000c10:	d1fb      	bne.n	8000c0a <LCD_DisplayAdd+0x86>
 8000c12:	2248      	movs	r2, #72	; 0x48
 8000c14:	5ca2      	ldrb	r2, [r4, r2]
 8000c16:	9501      	str	r5, [sp, #4]
 8000c18:	4692      	mov	sl, r2
 8000c1a:	4652      	mov	r2, sl
 8000c1c:	2a01      	cmp	r2, #1
 8000c1e:	d00b      	beq.n	8000c38 <LCD_DisplayAdd+0xb4>
 8000c20:	2a02      	cmp	r2, #2
 8000c22:	d10f      	bne.n	8000c44 <LCD_DisplayAdd+0xc0>
 8000c24:	681a      	ldr	r2, [r3, #0]
 8000c26:	4967      	ldr	r1, [pc, #412]	; (8000dc4 <LCD_DisplayAdd+0x240>)
 8000c28:	400a      	ands	r2, r1
 8000c2a:	601a      	str	r2, [r3, #0]
 8000c2c:	22a0      	movs	r2, #160	; 0xa0
 8000c2e:	6819      	ldr	r1, [r3, #0]
 8000c30:	00d2      	lsls	r2, r2, #3
 8000c32:	430a      	orrs	r2, r1
 8000c34:	601a      	str	r2, [r3, #0]
 8000c36:	e005      	b.n	8000c44 <LCD_DisplayAdd+0xc0>
 8000c38:	681a      	ldr	r2, [r3, #0]
 8000c3a:	4962      	ldr	r1, [pc, #392]	; (8000dc4 <LCD_DisplayAdd+0x240>)
 8000c3c:	400a      	ands	r2, r1
 8000c3e:	601a      	str	r2, [r3, #0]
 8000c40:	681a      	ldr	r2, [r3, #0]
 8000c42:	601a      	str	r2, [r3, #0]
 8000c44:	210c      	movs	r1, #12
 8000c46:	681a      	ldr	r2, [r3, #0]
 8000c48:	438a      	bics	r2, r1
 8000c4a:	601a      	str	r2, [r3, #0]
 8000c4c:	681a      	ldr	r2, [r3, #0]
 8000c4e:	390a      	subs	r1, #10
 8000c50:	430a      	orrs	r2, r1
 8000c52:	601a      	str	r2, [r3, #0]
 8000c54:	681a      	ldr	r2, [r3, #0]
 8000c56:	313e      	adds	r1, #62	; 0x3e
 8000c58:	438a      	bics	r2, r1
 8000c5a:	601a      	str	r2, [r3, #0]
 8000c5c:	681a      	ldr	r2, [r3, #0]
 8000c5e:	3140      	adds	r1, #64	; 0x40
 8000c60:	430a      	orrs	r2, r1
 8000c62:	601a      	str	r2, [r3, #0]
 8000c64:	1c33      	adds	r3, r6, #0
 8000c66:	42be      	cmp	r6, r7
 8000c68:	d200      	bcs.n	8000c6c <LCD_DisplayAdd+0xe8>
 8000c6a:	e079      	b.n	8000d60 <LCD_DisplayAdd+0x1dc>
 8000c6c:	b29b      	uxth	r3, r3
 8000c6e:	1c31      	adds	r1, r6, #0
 8000c70:	42be      	cmp	r6, r7
 8000c72:	d86e      	bhi.n	8000d52 <LCD_DisplayAdd+0x1ce>
 8000c74:	4658      	mov	r0, fp
 8000c76:	b28a      	uxth	r2, r1
 8000c78:	2800      	cmp	r0, #0
 8000c7a:	d150      	bne.n	8000d1e <LCD_DisplayAdd+0x19a>
 8000c7c:	80a1      	strh	r1, [r4, #4]
 8000c7e:	4649      	mov	r1, r9
 8000c80:	8021      	strh	r1, [r4, #0]
 8000c82:	4641      	mov	r1, r8
 8000c84:	8061      	strh	r1, [r4, #2]
 8000c86:	9902      	ldr	r1, [sp, #8]
 8000c88:	80e3      	strh	r3, [r4, #6]
 8000c8a:	8161      	strh	r1, [r4, #10]
 8000c8c:	9903      	ldr	r1, [sp, #12]
 8000c8e:	81a1      	strh	r1, [r4, #12]
 8000c90:	454a      	cmp	r2, r9
 8000c92:	d86c      	bhi.n	8000d6e <LCD_DisplayAdd+0x1ea>
 8000c94:	4598      	cmp	r8, r3
 8000c96:	d36a      	bcc.n	8000d6e <LCD_DisplayAdd+0x1ea>
 8000c98:	9b13      	ldr	r3, [sp, #76]	; 0x4c
 8000c9a:	2b00      	cmp	r3, #0
 8000c9c:	d067      	beq.n	8000d6e <LCD_DisplayAdd+0x1ea>
 8000c9e:	9b14      	ldr	r3, [sp, #80]	; 0x50
 8000ca0:	2b00      	cmp	r3, #0
 8000ca2:	d064      	beq.n	8000d6e <LCD_DisplayAdd+0x1ea>
 8000ca4:	465b      	mov	r3, fp
 8000ca6:	7223      	strb	r3, [r4, #8]
 8000ca8:	9b13      	ldr	r3, [sp, #76]	; 0x4c
 8000caa:	aa19      	add	r2, sp, #100	; 0x64
 8000cac:	6163      	str	r3, [r4, #20]
 8000cae:	9b14      	ldr	r3, [sp, #80]	; 0x50
 8000cb0:	4e45      	ldr	r6, [pc, #276]	; (8000dc8 <LCD_DisplayAdd+0x244>)
 8000cb2:	61a3      	str	r3, [r4, #24]
 8000cb4:	9b15      	ldr	r3, [sp, #84]	; 0x54
 8000cb6:	61e3      	str	r3, [r4, #28]
 8000cb8:	9b16      	ldr	r3, [sp, #88]	; 0x58
 8000cba:	6223      	str	r3, [r4, #32]
 8000cbc:	0023      	movs	r3, r4
 8000cbe:	334c      	adds	r3, #76	; 0x4c
 8000cc0:	ca23      	ldmia	r2!, {r0, r1, r5}
 8000cc2:	c323      	stmia	r3!, {r0, r1, r5}
 8000cc4:	6812      	ldr	r2, [r2, #0]
 8000cc6:	0020      	movs	r0, r4
 8000cc8:	601a      	str	r2, [r3, #0]
 8000cca:	22c8      	movs	r2, #200	; 0xc8
 8000ccc:	2300      	movs	r3, #0
 8000cce:	00d2      	lsls	r2, r2, #3
 8000cd0:	54a3      	strb	r3, [r4, r2]
 8000cd2:	3208      	adds	r2, #8
 8000cd4:	51a3      	str	r3, [r4, r6]
 8000cd6:	50a3      	str	r3, [r4, r2]
 8000cd8:	0023      	movs	r3, r4
 8000cda:	3360      	adds	r3, #96	; 0x60
 8000cdc:	65e3      	str	r3, [r4, #92]	; 0x5c
 8000cde:	9b01      	ldr	r3, [sp, #4]
 8000ce0:	2b00      	cmp	r3, #0
 8000ce2:	d015      	beq.n	8000d10 <LCD_DisplayAdd+0x18c>
 8000ce4:	599b      	ldr	r3, [r3, r6]
 8000ce6:	2b00      	cmp	r3, #0
 8000ce8:	d00b      	beq.n	8000d02 <LCD_DisplayAdd+0x17e>
 8000cea:	2201      	movs	r2, #1
 8000cec:	001d      	movs	r5, r3
 8000cee:	599b      	ldr	r3, [r3, r6]
 8000cf0:	0011      	movs	r1, r2
 8000cf2:	3201      	adds	r2, #1
 8000cf4:	b2d2      	uxtb	r2, r2
 8000cf6:	2b00      	cmp	r3, #0
 8000cf8:	d1f8      	bne.n	8000cec <LCD_DisplayAdd+0x168>
 8000cfa:	23c8      	movs	r3, #200	; 0xc8
 8000cfc:	00db      	lsls	r3, r3, #3
 8000cfe:	9501      	str	r5, [sp, #4]
 8000d00:	54e1      	strb	r1, [r4, r3]
 8000d02:	23c9      	movs	r3, #201	; 0xc9
 8000d04:	0020      	movs	r0, r4
 8000d06:	9a01      	ldr	r2, [sp, #4]
 8000d08:	00db      	lsls	r3, r3, #3
 8000d0a:	50e2      	str	r2, [r4, r3]
 8000d0c:	4b2e      	ldr	r3, [pc, #184]	; (8000dc8 <LCD_DisplayAdd+0x244>)
 8000d0e:	50d4      	str	r4, [r2, r3]
 8000d10:	b005      	add	sp, #20
 8000d12:	bcf0      	pop	{r4, r5, r6, r7}
 8000d14:	46bb      	mov	fp, r7
 8000d16:	46b2      	mov	sl, r6
 8000d18:	46a9      	mov	r9, r5
 8000d1a:	46a0      	mov	r8, r4
 8000d1c:	bdf0      	pop	{r4, r5, r6, r7, pc}
 8000d1e:	2802      	cmp	r0, #2
 8000d20:	d02d      	beq.n	8000d7e <LCD_DisplayAdd+0x1fa>
 8000d22:	2801      	cmp	r0, #1
 8000d24:	d03c      	beq.n	8000da0 <LCD_DisplayAdd+0x21c>
 8000d26:	2803      	cmp	r0, #3
 8000d28:	d121      	bne.n	8000d6e <LCD_DisplayAdd+0x1ea>
 8000d2a:	4641      	mov	r1, r8
 8000d2c:	8021      	strh	r1, [r4, #0]
 8000d2e:	4649      	mov	r1, r9
 8000d30:	8061      	strh	r1, [r4, #2]
 8000d32:	4641      	mov	r1, r8
 8000d34:	9803      	ldr	r0, [sp, #12]
 8000d36:	80a3      	strh	r3, [r4, #4]
 8000d38:	1a09      	subs	r1, r1, r0
 8000d3a:	1ac9      	subs	r1, r1, r3
 8000d3c:	8161      	strh	r1, [r4, #10]
 8000d3e:	9902      	ldr	r1, [sp, #8]
 8000d40:	80e2      	strh	r2, [r4, #6]
 8000d42:	81a1      	strh	r1, [r4, #12]
 8000d44:	0011      	movs	r1, r2
 8000d46:	001a      	movs	r2, r3
 8000d48:	000b      	movs	r3, r1
 8000d4a:	4649      	mov	r1, r9
 8000d4c:	46c1      	mov	r9, r8
 8000d4e:	4688      	mov	r8, r1
 8000d50:	e79e      	b.n	8000c90 <LCD_DisplayAdd+0x10c>
 8000d52:	4658      	mov	r0, fp
 8000d54:	1c39      	adds	r1, r7, #0
 8000d56:	b28a      	uxth	r2, r1
 8000d58:	2800      	cmp	r0, #0
 8000d5a:	d100      	bne.n	8000d5e <LCD_DisplayAdd+0x1da>
 8000d5c:	e78e      	b.n	8000c7c <LCD_DisplayAdd+0xf8>
 8000d5e:	e7de      	b.n	8000d1e <LCD_DisplayAdd+0x19a>
 8000d60:	1c3b      	adds	r3, r7, #0
 8000d62:	b29b      	uxth	r3, r3
 8000d64:	1c31      	adds	r1, r6, #0
 8000d66:	42be      	cmp	r6, r7
 8000d68:	d800      	bhi.n	8000d6c <LCD_DisplayAdd+0x1e8>
 8000d6a:	e783      	b.n	8000c74 <LCD_DisplayAdd+0xf0>
 8000d6c:	e7f1      	b.n	8000d52 <LCD_DisplayAdd+0x1ce>
 8000d6e:	22ca      	movs	r2, #202	; 0xca
 8000d70:	2100      	movs	r1, #0
 8000d72:	0020      	movs	r0, r4
 8000d74:	00d2      	lsls	r2, r2, #3
 8000d76:	f000 fe87 	bl	8001a88 <memset>
 8000d7a:	2000      	movs	r0, #0
 8000d7c:	e7c8      	b.n	8000d10 <LCD_DisplayAdd+0x18c>
 8000d7e:	4649      	mov	r1, r9
 8000d80:	8021      	strh	r1, [r4, #0]
 8000d82:	4641      	mov	r1, r8
 8000d84:	8061      	strh	r1, [r4, #2]
 8000d86:	4649      	mov	r1, r9
 8000d88:	9802      	ldr	r0, [sp, #8]
 8000d8a:	80a2      	strh	r2, [r4, #4]
 8000d8c:	1a09      	subs	r1, r1, r0
 8000d8e:	1a89      	subs	r1, r1, r2
 8000d90:	8161      	strh	r1, [r4, #10]
 8000d92:	4641      	mov	r1, r8
 8000d94:	9803      	ldr	r0, [sp, #12]
 8000d96:	80e3      	strh	r3, [r4, #6]
 8000d98:	1a09      	subs	r1, r1, r0
 8000d9a:	1ac9      	subs	r1, r1, r3
 8000d9c:	81a1      	strh	r1, [r4, #12]
 8000d9e:	e777      	b.n	8000c90 <LCD_DisplayAdd+0x10c>
 8000da0:	4641      	mov	r1, r8
 8000da2:	8021      	strh	r1, [r4, #0]
 8000da4:	4649      	mov	r1, r9
 8000da6:	8061      	strh	r1, [r4, #2]
 8000da8:	9903      	ldr	r1, [sp, #12]
 8000daa:	9802      	ldr	r0, [sp, #8]
 8000dac:	8161      	strh	r1, [r4, #10]
 8000dae:	4649      	mov	r1, r9
 8000db0:	1a09      	subs	r1, r1, r0
 8000db2:	80a3      	strh	r3, [r4, #4]
 8000db4:	80e2      	strh	r2, [r4, #6]
 8000db6:	1a89      	subs	r1, r1, r2
 8000db8:	e7c3      	b.n	8000d42 <LCD_DisplayAdd+0x1be>
 8000dba:	2000      	movs	r0, #0
 8000dbc:	e7a8      	b.n	8000d10 <LCD_DisplayAdd+0x18c>
 8000dbe:	46c0      	nop			; (mov r8, r8)
 8000dc0:	08001b58 	.word	0x08001b58
 8000dc4:	fffff0ff 	.word	0xfffff0ff
 8000dc8:	0000064c 	.word	0x0000064c

08000dcc <LCD_Init>:
 8000dcc:	6b03      	ldr	r3, [r0, #48]	; 0x30
 8000dce:	b570      	push	{r4, r5, r6, lr}
 8000dd0:	0004      	movs	r4, r0
 8000dd2:	2b00      	cmp	r3, #0
 8000dd4:	d00b      	beq.n	8000dee <LCD_Init+0x22>
 8000dd6:	8e82      	ldrh	r2, [r0, #52]	; 0x34
 8000dd8:	2019      	movs	r0, #25
 8000dda:	0412      	lsls	r2, r2, #16
 8000ddc:	619a      	str	r2, [r3, #24]
 8000dde:	f000 fe13 	bl	8001a08 <LL_mDelay>
 8000de2:	6b23      	ldr	r3, [r4, #48]	; 0x30
 8000de4:	8ea2      	ldrh	r2, [r4, #52]	; 0x34
 8000de6:	2019      	movs	r0, #25
 8000de8:	619a      	str	r2, [r3, #24]
 8000dea:	f000 fe0d 	bl	8001a08 <LL_mDelay>
 8000dee:	6963      	ldr	r3, [r4, #20]
 8000df0:	7a20      	ldrb	r0, [r4, #8]
 8000df2:	4798      	blx	r3
 8000df4:	0001      	movs	r1, r0
 8000df6:	0020      	movs	r0, r4
 8000df8:	f7ff fd5a 	bl	80008b0 <LCD_String_Interpretator>
 8000dfc:	235a      	movs	r3, #90	; 0x5a
 8000dfe:	5ce2      	ldrb	r2, [r4, r3]
 8000e00:	1c13      	adds	r3, r2, #0
 8000e02:	2a64      	cmp	r2, #100	; 0x64
 8000e04:	d900      	bls.n	8000e08 <LCD_Init+0x3c>
 8000e06:	2364      	movs	r3, #100	; 0x64
 8000e08:	215a      	movs	r1, #90	; 0x5a
 8000e0a:	5463      	strb	r3, [r4, r1]
 8000e0c:	6ce5      	ldr	r5, [r4, #76]	; 0x4c
 8000e0e:	b2de      	uxtb	r6, r3
 8000e10:	2d00      	cmp	r5, #0
 8000e12:	d024      	beq.n	8000e5e <LCD_Init+0x92>
 8000e14:	6ae8      	ldr	r0, [r5, #44]	; 0x2c
 8000e16:	310a      	adds	r1, #10
 8000e18:	4370      	muls	r0, r6
 8000e1a:	f7ff f973 	bl	8000104 <__udivsi3>
 8000e1e:	2280      	movs	r2, #128	; 0x80
 8000e20:	6d23      	ldr	r3, [r4, #80]	; 0x50
 8000e22:	0052      	lsls	r2, r2, #1
 8000e24:	4293      	cmp	r3, r2
 8000e26:	d02e      	beq.n	8000e86 <LCD_Init+0xba>
 8000e28:	d80f      	bhi.n	8000e4a <LCD_Init+0x7e>
 8000e2a:	2b01      	cmp	r3, #1
 8000e2c:	d020      	beq.n	8000e70 <LCD_Init+0xa4>
 8000e2e:	2b10      	cmp	r3, #16
 8000e30:	d100      	bne.n	8000e34 <LCD_Init+0x68>
 8000e32:	63a8      	str	r0, [r5, #56]	; 0x38
 8000e34:	2201      	movs	r2, #1
 8000e36:	6829      	ldr	r1, [r5, #0]
 8000e38:	420a      	tst	r2, r1
 8000e3a:	d105      	bne.n	8000e48 <LCD_Init+0x7c>
 8000e3c:	6a29      	ldr	r1, [r5, #32]
 8000e3e:	430b      	orrs	r3, r1
 8000e40:	622b      	str	r3, [r5, #32]
 8000e42:	682b      	ldr	r3, [r5, #0]
 8000e44:	431a      	orrs	r2, r3
 8000e46:	602a      	str	r2, [r5, #0]
 8000e48:	bd70      	pop	{r4, r5, r6, pc}
 8000e4a:	2280      	movs	r2, #128	; 0x80
 8000e4c:	0152      	lsls	r2, r2, #5
 8000e4e:	4293      	cmp	r3, r2
 8000e50:	d1f0      	bne.n	8000e34 <LCD_Init+0x68>
 8000e52:	2201      	movs	r2, #1
 8000e54:	6428      	str	r0, [r5, #64]	; 0x40
 8000e56:	6829      	ldr	r1, [r5, #0]
 8000e58:	420a      	tst	r2, r1
 8000e5a:	d1f5      	bne.n	8000e48 <LCD_Init+0x7c>
 8000e5c:	e7ee      	b.n	8000e3c <LCD_Init+0x70>
 8000e5e:	6d63      	ldr	r3, [r4, #84]	; 0x54
 8000e60:	2b00      	cmp	r3, #0
 8000e62:	d0f1      	beq.n	8000e48 <LCD_Init+0x7c>
 8000e64:	2a00      	cmp	r2, #0
 8000e66:	d009      	beq.n	8000e7c <LCD_Init+0xb0>
 8000e68:	2258      	movs	r2, #88	; 0x58
 8000e6a:	5aa2      	ldrh	r2, [r4, r2]
 8000e6c:	619a      	str	r2, [r3, #24]
 8000e6e:	e7eb      	b.n	8000e48 <LCD_Init+0x7c>
 8000e70:	2201      	movs	r2, #1
 8000e72:	6368      	str	r0, [r5, #52]	; 0x34
 8000e74:	6829      	ldr	r1, [r5, #0]
 8000e76:	420a      	tst	r2, r1
 8000e78:	d1e6      	bne.n	8000e48 <LCD_Init+0x7c>
 8000e7a:	e7df      	b.n	8000e3c <LCD_Init+0x70>
 8000e7c:	2258      	movs	r2, #88	; 0x58
 8000e7e:	5aa2      	ldrh	r2, [r4, r2]
 8000e80:	0412      	lsls	r2, r2, #16
 8000e82:	619a      	str	r2, [r3, #24]
 8000e84:	e7e0      	b.n	8000e48 <LCD_Init+0x7c>
 8000e86:	2201      	movs	r2, #1
 8000e88:	63e8      	str	r0, [r5, #60]	; 0x3c
 8000e8a:	6829      	ldr	r1, [r5, #0]
 8000e8c:	420a      	tst	r2, r1
 8000e8e:	d1db      	bne.n	8000e48 <LCD_Init+0x7c>
 8000e90:	e7d4      	b.n	8000e3c <LCD_Init+0x70>
 8000e92:	46c0      	nop			; (mov r8, r8)

08000e94 <LCD_FillWindow>:
 8000e94:	b5f8      	push	{r3, r4, r5, r6, r7, lr}
 8000e96:	0004      	movs	r4, r0
 8000e98:	0008      	movs	r0, r1
 8000e9a:	0011      	movs	r1, r2
 8000e9c:	001a      	movs	r2, r3
 8000e9e:	ab06      	add	r3, sp, #24
 8000ea0:	881b      	ldrh	r3, [r3, #0]
 8000ea2:	4290      	cmp	r0, r2
 8000ea4:	d902      	bls.n	8000eac <LCD_FillWindow+0x18>
 8000ea6:	0005      	movs	r5, r0
 8000ea8:	0010      	movs	r0, r2
 8000eaa:	002a      	movs	r2, r5
 8000eac:	4299      	cmp	r1, r3
 8000eae:	d902      	bls.n	8000eb6 <LCD_FillWindow+0x22>
 8000eb0:	000d      	movs	r5, r1
 8000eb2:	0019      	movs	r1, r3
 8000eb4:	002b      	movs	r3, r5
 8000eb6:	88a5      	ldrh	r5, [r4, #4]
 8000eb8:	4285      	cmp	r5, r0
 8000eba:	d800      	bhi.n	8000ebe <LCD_FillWindow+0x2a>
 8000ebc:	e088      	b.n	8000fd0 <LCD_FillWindow+0x13c>
 8000ebe:	88e6      	ldrh	r6, [r4, #6]
 8000ec0:	428e      	cmp	r6, r1
 8000ec2:	d800      	bhi.n	8000ec6 <LCD_FillWindow+0x32>
 8000ec4:	e084      	b.n	8000fd0 <LCD_FillWindow+0x13c>
 8000ec6:	4295      	cmp	r5, r2
 8000ec8:	d801      	bhi.n	8000ece <LCD_FillWindow+0x3a>
 8000eca:	3d01      	subs	r5, #1
 8000ecc:	b2aa      	uxth	r2, r5
 8000ece:	429e      	cmp	r6, r3
 8000ed0:	d801      	bhi.n	8000ed6 <LCD_FillWindow+0x42>
 8000ed2:	3e01      	subs	r6, #1
 8000ed4:	b2b3      	uxth	r3, r6
 8000ed6:	1a16      	subs	r6, r2, r0
 8000ed8:	1a5d      	subs	r5, r3, r1
 8000eda:	3601      	adds	r6, #1
 8000edc:	3501      	adds	r5, #1
 8000ede:	89a7      	ldrh	r7, [r4, #12]
 8000ee0:	4375      	muls	r5, r6
 8000ee2:	8966      	ldrh	r6, [r4, #10]
 8000ee4:	19db      	adds	r3, r3, r7
 8000ee6:	1992      	adds	r2, r2, r6
 8000ee8:	1980      	adds	r0, r0, r6
 8000eea:	19c9      	adds	r1, r1, r7
 8000eec:	b29b      	uxth	r3, r3
 8000eee:	b292      	uxth	r2, r2
 8000ef0:	b289      	uxth	r1, r1
 8000ef2:	69a6      	ldr	r6, [r4, #24]
 8000ef4:	b280      	uxth	r0, r0
 8000ef6:	47b0      	blx	r6
 8000ef8:	0001      	movs	r1, r0
 8000efa:	0020      	movs	r0, r4
 8000efc:	f7ff fcd8 	bl	80008b0 <LCD_String_Interpretator>
 8000f00:	4b6e      	ldr	r3, [pc, #440]	; (80010bc <LCD_FillWindow+0x228>)
 8000f02:	5ce3      	ldrb	r3, [r4, r3]
 8000f04:	2b00      	cmp	r3, #0
 8000f06:	d106      	bne.n	8000f16 <LCD_FillWindow+0x82>
 8000f08:	6c22      	ldr	r2, [r4, #64]	; 0x40
 8000f0a:	2a00      	cmp	r2, #0
 8000f0c:	d003      	beq.n	8000f16 <LCD_FillWindow+0x82>
 8000f0e:	3344      	adds	r3, #68	; 0x44
 8000f10:	5ae3      	ldrh	r3, [r4, r3]
 8000f12:	041b      	lsls	r3, r3, #16
 8000f14:	6193      	str	r3, [r2, #24]
 8000f16:	4b6a      	ldr	r3, [pc, #424]	; (80010c0 <LCD_FillWindow+0x22c>)
 8000f18:	5ce3      	ldrb	r3, [r4, r3]
 8000f1a:	2b00      	cmp	r3, #0
 8000f1c:	d102      	bne.n	8000f24 <LCD_FillWindow+0x90>
 8000f1e:	6ba3      	ldr	r3, [r4, #56]	; 0x38
 8000f20:	8fa2      	ldrh	r2, [r4, #60]	; 0x3c
 8000f22:	619a      	str	r2, [r3, #24]
 8000f24:	9b07      	ldr	r3, [sp, #28]
 8000f26:	0cd9      	lsrs	r1, r3, #19
 8000f28:	b2da      	uxtb	r2, r3
 8000f2a:	08d2      	lsrs	r2, r2, #3
 8000f2c:	02c9      	lsls	r1, r1, #11
 8000f2e:	4311      	orrs	r1, r2
 8000f30:	22fc      	movs	r2, #252	; 0xfc
 8000f32:	095b      	lsrs	r3, r3, #5
 8000f34:	00d2      	lsls	r2, r2, #3
 8000f36:	4013      	ands	r3, r2
 8000f38:	430b      	orrs	r3, r1
 8000f3a:	b29f      	uxth	r7, r3
 8000f3c:	2348      	movs	r3, #72	; 0x48
 8000f3e:	5ce2      	ldrb	r2, [r4, r3]
 8000f40:	2a01      	cmp	r2, #1
 8000f42:	d100      	bne.n	8000f46 <LCD_FillWindow+0xb2>
 8000f44:	e083      	b.n	800104e <LCD_FillWindow+0x1ba>
 8000f46:	4b5f      	ldr	r3, [pc, #380]	; (80010c4 <LCD_FillWindow+0x230>)
 8000f48:	4e5f      	ldr	r6, [pc, #380]	; (80010c8 <LCD_FillWindow+0x234>)
 8000f4a:	52e7      	strh	r7, [r4, r3]
 8000f4c:	6a63      	ldr	r3, [r4, #36]	; 0x24
 8000f4e:	6818      	ldr	r0, [r3, #0]
 8000f50:	4030      	ands	r0, r6
 8000f52:	6018      	str	r0, [r3, #0]
 8000f54:	6858      	ldr	r0, [r3, #4]
 8000f56:	4e5d      	ldr	r6, [pc, #372]	; (80010cc <LCD_FillWindow+0x238>)
 8000f58:	4030      	ands	r0, r6
 8000f5a:	6058      	str	r0, [r3, #4]
 8000f5c:	6858      	ldr	r0, [r3, #4]
 8000f5e:	2a02      	cmp	r2, #2
 8000f60:	d137      	bne.n	8000fd2 <LCD_FillWindow+0x13e>
 8000f62:	22f0      	movs	r2, #240	; 0xf0
 8000f64:	0112      	lsls	r2, r2, #4
 8000f66:	4302      	orrs	r2, r0
 8000f68:	605a      	str	r2, [r3, #4]
 8000f6a:	685a      	ldr	r2, [r3, #4]
 8000f6c:	4858      	ldr	r0, [pc, #352]	; (80010d0 <LCD_FillWindow+0x23c>)
 8000f6e:	4002      	ands	r2, r0
 8000f70:	2040      	movs	r0, #64	; 0x40
 8000f72:	605a      	str	r2, [r3, #4]
 8000f74:	681a      	ldr	r2, [r3, #0]
 8000f76:	4302      	orrs	r2, r0
 8000f78:	6aa0      	ldr	r0, [r4, #40]	; 0x28
 8000f7a:	601a      	str	r2, [r3, #0]
 8000f7c:	2800      	cmp	r0, #0
 8000f7e:	d100      	bne.n	8000f82 <LCD_FillWindow+0xee>
 8000f80:	e08c      	b.n	800109c <LCD_FillWindow+0x208>
 8000f82:	2101      	movs	r1, #1
 8000f84:	6ae6      	ldr	r6, [r4, #44]	; 0x2c
 8000f86:	4a53      	ldr	r2, [pc, #332]	; (80010d4 <LCD_FillWindow+0x240>)
 8000f88:	6847      	ldr	r7, [r0, #4]
 8000f8a:	5d92      	ldrb	r2, [r2, r6]
 8000f8c:	00b6      	lsls	r6, r6, #2
 8000f8e:	40b1      	lsls	r1, r6
 8000f90:	4339      	orrs	r1, r7
 8000f92:	6041      	str	r1, [r0, #4]
 8000f94:	1882      	adds	r2, r0, r2
 8000f96:	2002      	movs	r0, #2
 8000f98:	6859      	ldr	r1, [r3, #4]
 8000f9a:	4301      	orrs	r1, r0
 8000f9c:	6059      	str	r1, [r3, #4]
 8000f9e:	2140      	movs	r1, #64	; 0x40
 8000fa0:	330c      	adds	r3, #12
 8000fa2:	6093      	str	r3, [r2, #8]
 8000fa4:	4b47      	ldr	r3, [pc, #284]	; (80010c4 <LCD_FillWindow+0x230>)
 8000fa6:	18e3      	adds	r3, r4, r3
 8000fa8:	60d3      	str	r3, [r2, #12]
 8000faa:	6813      	ldr	r3, [r2, #0]
 8000fac:	438b      	bics	r3, r1
 8000fae:	6013      	str	r3, [r2, #0]
 8000fb0:	6813      	ldr	r3, [r2, #0]
 8000fb2:	3140      	adds	r1, #64	; 0x40
 8000fb4:	438b      	bics	r3, r1
 8000fb6:	6013      	str	r3, [r2, #0]
 8000fb8:	2380      	movs	r3, #128	; 0x80
 8000fba:	025b      	lsls	r3, r3, #9
 8000fbc:	429d      	cmp	r5, r3
 8000fbe:	d265      	bcs.n	800108c <LCD_FillWindow+0x1f8>
 8000fc0:	2100      	movs	r1, #0
 8000fc2:	4b45      	ldr	r3, [pc, #276]	; (80010d8 <LCD_FillWindow+0x244>)
 8000fc4:	6055      	str	r5, [r2, #4]
 8000fc6:	50e1      	str	r1, [r4, r3]
 8000fc8:	2101      	movs	r1, #1
 8000fca:	6813      	ldr	r3, [r2, #0]
 8000fcc:	430b      	orrs	r3, r1
 8000fce:	6013      	str	r3, [r2, #0]
 8000fd0:	bdf8      	pop	{r3, r4, r5, r6, r7, pc}
 8000fd2:	22e0      	movs	r2, #224	; 0xe0
 8000fd4:	00d2      	lsls	r2, r2, #3
 8000fd6:	4302      	orrs	r2, r0
 8000fd8:	605a      	str	r2, [r3, #4]
 8000fda:	685a      	ldr	r2, [r3, #4]
 8000fdc:	483c      	ldr	r0, [pc, #240]	; (80010d0 <LCD_FillWindow+0x23c>)
 8000fde:	4002      	ands	r2, r0
 8000fe0:	2040      	movs	r0, #64	; 0x40
 8000fe2:	605a      	str	r2, [r3, #4]
 8000fe4:	681a      	ldr	r2, [r3, #0]
 8000fe6:	4302      	orrs	r2, r0
 8000fe8:	6aa0      	ldr	r0, [r4, #40]	; 0x28
 8000fea:	601a      	str	r2, [r3, #0]
 8000fec:	2800      	cmp	r0, #0
 8000fee:	d1c8      	bne.n	8000f82 <LCD_FillWindow+0xee>
 8000ff0:	b2fe      	uxtb	r6, r7
 8000ff2:	0a3f      	lsrs	r7, r7, #8
 8000ff4:	2d00      	cmp	r5, #0
 8000ff6:	d013      	beq.n	8001020 <LCD_FillWindow+0x18c>
 8000ff8:	2202      	movs	r2, #2
 8000ffa:	731e      	strb	r6, [r3, #12]
 8000ffc:	6898      	ldr	r0, [r3, #8]
 8000ffe:	4202      	tst	r2, r0
 8001000:	d103      	bne.n	800100a <LCD_FillWindow+0x176>
 8001002:	46c0      	nop			; (mov r8, r8)
 8001004:	6899      	ldr	r1, [r3, #8]
 8001006:	420a      	tst	r2, r1
 8001008:	d0fb      	beq.n	8001002 <LCD_FillWindow+0x16e>
 800100a:	731f      	strb	r7, [r3, #12]
 800100c:	6898      	ldr	r0, [r3, #8]
 800100e:	4202      	tst	r2, r0
 8001010:	d103      	bne.n	800101a <LCD_FillWindow+0x186>
 8001012:	46c0      	nop			; (mov r8, r8)
 8001014:	6899      	ldr	r1, [r3, #8]
 8001016:	420a      	tst	r2, r1
 8001018:	d0fb      	beq.n	8001012 <LCD_FillWindow+0x17e>
 800101a:	3d01      	subs	r5, #1
 800101c:	2d00      	cmp	r5, #0
 800101e:	d1ec      	bne.n	8000ffa <LCD_FillWindow+0x166>
 8001020:	689a      	ldr	r2, [r3, #8]
 8001022:	2180      	movs	r1, #128	; 0x80
 8001024:	0612      	lsls	r2, r2, #24
 8001026:	d503      	bpl.n	8001030 <LCD_FillWindow+0x19c>
 8001028:	46c0      	nop			; (mov r8, r8)
 800102a:	689a      	ldr	r2, [r3, #8]
 800102c:	4211      	tst	r1, r2
 800102e:	d1fb      	bne.n	8001028 <LCD_FillWindow+0x194>
 8001030:	4a22      	ldr	r2, [pc, #136]	; (80010bc <LCD_FillWindow+0x228>)
 8001032:	5ca2      	ldrb	r2, [r4, r2]
 8001034:	2a00      	cmp	r2, #0
 8001036:	d105      	bne.n	8001044 <LCD_FillWindow+0x1b0>
 8001038:	6c22      	ldr	r2, [r4, #64]	; 0x40
 800103a:	2a00      	cmp	r2, #0
 800103c:	d002      	beq.n	8001044 <LCD_FillWindow+0x1b0>
 800103e:	2144      	movs	r1, #68	; 0x44
 8001040:	5a61      	ldrh	r1, [r4, r1]
 8001042:	6191      	str	r1, [r2, #24]
 8001044:	2140      	movs	r1, #64	; 0x40
 8001046:	681a      	ldr	r2, [r3, #0]
 8001048:	438a      	bics	r2, r1
 800104a:	601a      	str	r2, [r3, #0]
 800104c:	e7c0      	b.n	8000fd0 <LCD_FillWindow+0x13c>
 800104e:	4a1d      	ldr	r2, [pc, #116]	; (80010c4 <LCD_FillWindow+0x230>)
 8001050:	ba7b      	rev16	r3, r7
 8001052:	52a3      	strh	r3, [r4, r2]
 8001054:	b29f      	uxth	r7, r3
 8001056:	6a63      	ldr	r3, [r4, #36]	; 0x24
 8001058:	481b      	ldr	r0, [pc, #108]	; (80010c8 <LCD_FillWindow+0x234>)
 800105a:	681a      	ldr	r2, [r3, #0]
 800105c:	4002      	ands	r2, r0
 800105e:	601a      	str	r2, [r3, #0]
 8001060:	685a      	ldr	r2, [r3, #4]
 8001062:	481a      	ldr	r0, [pc, #104]	; (80010cc <LCD_FillWindow+0x238>)
 8001064:	4002      	ands	r2, r0
 8001066:	605a      	str	r2, [r3, #4]
 8001068:	22e0      	movs	r2, #224	; 0xe0
 800106a:	6858      	ldr	r0, [r3, #4]
 800106c:	00d2      	lsls	r2, r2, #3
 800106e:	4302      	orrs	r2, r0
 8001070:	605a      	str	r2, [r3, #4]
 8001072:	685a      	ldr	r2, [r3, #4]
 8001074:	4816      	ldr	r0, [pc, #88]	; (80010d0 <LCD_FillWindow+0x23c>)
 8001076:	4002      	ands	r2, r0
 8001078:	2040      	movs	r0, #64	; 0x40
 800107a:	605a      	str	r2, [r3, #4]
 800107c:	681a      	ldr	r2, [r3, #0]
 800107e:	4302      	orrs	r2, r0
 8001080:	6aa0      	ldr	r0, [r4, #40]	; 0x28
 8001082:	601a      	str	r2, [r3, #0]
 8001084:	2800      	cmp	r0, #0
 8001086:	d0b3      	beq.n	8000ff0 <LCD_FillWindow+0x15c>
 8001088:	006d      	lsls	r5, r5, #1
 800108a:	e77a      	b.n	8000f82 <LCD_FillWindow+0xee>
 800108c:	4b13      	ldr	r3, [pc, #76]	; (80010dc <LCD_FillWindow+0x248>)
 800108e:	6053      	str	r3, [r2, #4]
 8001090:	4b13      	ldr	r3, [pc, #76]	; (80010e0 <LCD_FillWindow+0x24c>)
 8001092:	469c      	mov	ip, r3
 8001094:	4b10      	ldr	r3, [pc, #64]	; (80010d8 <LCD_FillWindow+0x244>)
 8001096:	4465      	add	r5, ip
 8001098:	50e5      	str	r5, [r4, r3]
 800109a:	e795      	b.n	8000fc8 <LCD_FillWindow+0x134>
 800109c:	3002      	adds	r0, #2
 800109e:	2d00      	cmp	r5, #0
 80010a0:	d0be      	beq.n	8001020 <LCD_FillWindow+0x18c>
 80010a2:	819f      	strh	r7, [r3, #12]
 80010a4:	689a      	ldr	r2, [r3, #8]
 80010a6:	4210      	tst	r0, r2
 80010a8:	d103      	bne.n	80010b2 <LCD_FillWindow+0x21e>
 80010aa:	46c0      	nop			; (mov r8, r8)
 80010ac:	689a      	ldr	r2, [r3, #8]
 80010ae:	4210      	tst	r0, r2
 80010b0:	d0fb      	beq.n	80010aa <LCD_FillWindow+0x216>
 80010b2:	3d01      	subs	r5, #1
 80010b4:	2d00      	cmp	r5, #0
 80010b6:	d1f4      	bne.n	80010a2 <LCD_FillWindow+0x20e>
 80010b8:	e7b2      	b.n	8001020 <LCD_FillWindow+0x18c>
 80010ba:	46c0      	nop			; (mov r8, r8)
 80010bc:	00000641 	.word	0x00000641
 80010c0:	00000642 	.word	0x00000642
 80010c4:	00000644 	.word	0x00000644
 80010c8:	ffff5bff 	.word	0xffff5bff
 80010cc:	fffff0ff 	.word	0xfffff0ff
 80010d0:	ffffbfff 	.word	0xffffbfff
 80010d4:	08001b58 	.word	0x08001b58
 80010d8:	0000063c 	.word	0x0000063c
 80010dc:	0000ffff 	.word	0x0000ffff
 80010e0:	ffff0001 	.word	0xffff0001

080010e4 <LCD_Fill>:
 80010e4:	b500      	push	{lr}
 80010e6:	88c2      	ldrh	r2, [r0, #6]
 80010e8:	8883      	ldrh	r3, [r0, #4]
 80010ea:	3a01      	subs	r2, #1
 80010ec:	b083      	sub	sp, #12
 80010ee:	b292      	uxth	r2, r2
 80010f0:	3b01      	subs	r3, #1
 80010f2:	9101      	str	r1, [sp, #4]
 80010f4:	9200      	str	r2, [sp, #0]
 80010f6:	2100      	movs	r1, #0
 80010f8:	2200      	movs	r2, #0
 80010fa:	b29b      	uxth	r3, r3
 80010fc:	f7ff feca 	bl	8000e94 <LCD_FillWindow>
 8001100:	b003      	add	sp, #12
 8001102:	bd00      	pop	{pc}

08001104 <LCD_WriteChar>:
 8001104:	b5f0      	push	{r4, r5, r6, r7, lr}
 8001106:	4645      	mov	r5, r8
 8001108:	4657      	mov	r7, sl
 800110a:	46de      	mov	lr, fp
 800110c:	464e      	mov	r6, r9
 800110e:	b5e0      	push	{r5, r6, r7, lr}
 8001110:	b087      	sub	sp, #28
 8001112:	0007      	movs	r7, r0
 8001114:	9811      	ldr	r0, [sp, #68]	; 0x44
 8001116:	9104      	str	r1, [sp, #16]
 8001118:	0cc4      	lsrs	r4, r0, #19
 800111a:	b2c5      	uxtb	r5, r0
 800111c:	02e4      	lsls	r4, r4, #11
 800111e:	08ed      	lsrs	r5, r5, #3
 8001120:	4325      	orrs	r5, r4
 8001122:	24fc      	movs	r4, #252	; 0xfc
 8001124:	0940      	lsrs	r0, r0, #5
 8001126:	00e4      	lsls	r4, r4, #3
 8001128:	4020      	ands	r0, r4
 800112a:	4305      	orrs	r5, r0
 800112c:	2048      	movs	r0, #72	; 0x48
 800112e:	9201      	str	r2, [sp, #4]
 8001130:	5c38      	ldrb	r0, [r7, r0]
 8001132:	9a10      	ldr	r2, [sp, #64]	; 0x40
 8001134:	a913      	add	r1, sp, #76	; 0x4c
 8001136:	4690      	mov	r8, r2
 8001138:	7809      	ldrb	r1, [r1, #0]
 800113a:	9a12      	ldr	r2, [sp, #72]	; 0x48
 800113c:	b2ad      	uxth	r5, r5
 800113e:	2801      	cmp	r0, #1
 8001140:	d101      	bne.n	8001146 <LCD_WriteChar+0x42>
 8001142:	ba6d      	rev16	r5, r5
 8001144:	b2ad      	uxth	r5, r5
 8001146:	0cd6      	lsrs	r6, r2, #19
 8001148:	b2d4      	uxtb	r4, r2
 800114a:	02f6      	lsls	r6, r6, #11
 800114c:	08e4      	lsrs	r4, r4, #3
 800114e:	4334      	orrs	r4, r6
 8001150:	26fc      	movs	r6, #252	; 0xfc
 8001152:	0952      	lsrs	r2, r2, #5
 8001154:	00f6      	lsls	r6, r6, #3
 8001156:	4032      	ands	r2, r6
 8001158:	4322      	orrs	r2, r4
 800115a:	b292      	uxth	r2, r2
 800115c:	4692      	mov	sl, r2
 800115e:	2801      	cmp	r0, #1
 8001160:	d102      	bne.n	8001168 <LCD_WriteChar+0x64>
 8001162:	ba52      	rev16	r2, r2
 8001164:	b292      	uxth	r2, r2
 8001166:	4692      	mov	sl, r2
 8001168:	4642      	mov	r2, r8
 800116a:	7a10      	ldrb	r0, [r2, #8]
 800116c:	2200      	movs	r2, #0
 800116e:	4298      	cmp	r0, r3
 8001170:	d804      	bhi.n	800117c <LCD_WriteChar+0x78>
 8001172:	4644      	mov	r4, r8
 8001174:	7a64      	ldrb	r4, [r4, #9]
 8001176:	429c      	cmp	r4, r3
 8001178:	d300      	bcc.n	800117c <LCD_WriteChar+0x78>
 800117a:	e076      	b.n	800126a <LCD_WriteChar+0x166>
 800117c:	4643      	mov	r3, r8
 800117e:	7818      	ldrb	r0, [r3, #0]
 8001180:	1e43      	subs	r3, r0, #1
 8001182:	10db      	asrs	r3, r3, #3
 8001184:	3301      	adds	r3, #1
 8001186:	469b      	mov	fp, r3
 8001188:	2b04      	cmp	r3, #4
 800118a:	dc67      	bgt.n	800125c <LCD_WriteChar+0x158>
 800118c:	465c      	mov	r4, fp
 800118e:	2601      	movs	r6, #1
 8001190:	4362      	muls	r2, r4
 8001192:	4644      	mov	r4, r8
 8001194:	00db      	lsls	r3, r3, #3
 8001196:	3b01      	subs	r3, #1
 8001198:	409e      	lsls	r6, r3
 800119a:	4643      	mov	r3, r8
 800119c:	6864      	ldr	r4, [r4, #4]
 800119e:	9605      	str	r6, [sp, #20]
 80011a0:	46a4      	mov	ip, r4
 80011a2:	785b      	ldrb	r3, [r3, #1]
 80011a4:	435a      	muls	r2, r3
 80011a6:	4462      	add	r2, ip
 80011a8:	9203      	str	r2, [sp, #12]
 80011aa:	2900      	cmp	r1, #0
 80011ac:	d060      	beq.n	8001270 <LCD_WriteChar+0x16c>
 80011ae:	2200      	movs	r2, #0
 80011b0:	9202      	str	r2, [sp, #8]
 80011b2:	2b00      	cmp	r3, #0
 80011b4:	d052      	beq.n	800125c <LCD_WriteChar+0x158>
 80011b6:	0016      	movs	r6, r2
 80011b8:	4642      	mov	r2, r8
 80011ba:	9210      	str	r2, [sp, #64]	; 0x40
 80011bc:	9a03      	ldr	r2, [sp, #12]
 80011be:	46ba      	mov	sl, r7
 80011c0:	4690      	mov	r8, r2
 80011c2:	465a      	mov	r2, fp
 80011c4:	9f05      	ldr	r7, [sp, #20]
 80011c6:	2a01      	cmp	r2, #1
 80011c8:	d043      	beq.n	8001252 <LCD_WriteChar+0x14e>
 80011ca:	2a02      	cmp	r2, #2
 80011cc:	d100      	bne.n	80011d0 <LCD_WriteChar+0xcc>
 80011ce:	e0f4      	b.n	80013ba <LCD_WriteChar+0x2b6>
 80011d0:	2a03      	cmp	r2, #3
 80011d2:	d100      	bne.n	80011d6 <LCD_WriteChar+0xd2>
 80011d4:	e0f4      	b.n	80013c0 <LCD_WriteChar+0x2bc>
 80011d6:	2a04      	cmp	r2, #4
 80011d8:	d101      	bne.n	80011de <LCD_WriteChar+0xda>
 80011da:	4642      	mov	r2, r8
 80011dc:	6816      	ldr	r6, [r2, #0]
 80011de:	44d8      	add	r8, fp
 80011e0:	2800      	cmp	r0, #0
 80011e2:	d03b      	beq.n	800125c <LCD_WriteChar+0x158>
 80011e4:	466a      	mov	r2, sp
 80011e6:	2104      	movs	r1, #4
 80011e8:	5e52      	ldrsh	r2, [r2, r1]
 80011ea:	4691      	mov	r9, r2
 80011ec:	2a00      	cmp	r2, #0
 80011ee:	db24      	blt.n	800123a <LCD_WriteChar+0x136>
 80011f0:	2500      	movs	r5, #0
 80011f2:	9c04      	ldr	r4, [sp, #16]
 80011f4:	e004      	b.n	8001200 <LCD_WriteChar+0xfc>
 80011f6:	3401      	adds	r4, #1
 80011f8:	3501      	adds	r5, #1
 80011fa:	b2a4      	uxth	r4, r4
 80011fc:	42a8      	cmp	r0, r5
 80011fe:	dd1a      	ble.n	8001236 <LCD_WriteChar+0x132>
 8001200:	0033      	movs	r3, r6
 8001202:	40ab      	lsls	r3, r5
 8001204:	421f      	tst	r7, r3
 8001206:	d0f6      	beq.n	80011f6 <LCD_WriteChar+0xf2>
 8001208:	4653      	mov	r3, sl
 800120a:	889b      	ldrh	r3, [r3, #4]
 800120c:	b221      	sxth	r1, r4
 800120e:	428b      	cmp	r3, r1
 8001210:	ddf1      	ble.n	80011f6 <LCD_WriteChar+0xf2>
 8001212:	4653      	mov	r3, sl
 8001214:	88db      	ldrh	r3, [r3, #6]
 8001216:	454b      	cmp	r3, r9
 8001218:	dded      	ble.n	80011f6 <LCD_WriteChar+0xf2>
 800121a:	2900      	cmp	r1, #0
 800121c:	dbeb      	blt.n	80011f6 <LCD_WriteChar+0xf2>
 800121e:	4650      	mov	r0, sl
 8001220:	9b11      	ldr	r3, [sp, #68]	; 0x44
 8001222:	464a      	mov	r2, r9
 8001224:	f7ff fc14 	bl	8000a50 <LCD_DrawPixel.part.0>
 8001228:	9b10      	ldr	r3, [sp, #64]	; 0x40
 800122a:	3401      	adds	r4, #1
 800122c:	7818      	ldrb	r0, [r3, #0]
 800122e:	3501      	adds	r5, #1
 8001230:	b2a4      	uxth	r4, r4
 8001232:	42a8      	cmp	r0, r5
 8001234:	dce4      	bgt.n	8001200 <LCD_WriteChar+0xfc>
 8001236:	9b10      	ldr	r3, [sp, #64]	; 0x40
 8001238:	785b      	ldrb	r3, [r3, #1]
 800123a:	9a02      	ldr	r2, [sp, #8]
 800123c:	3201      	adds	r2, #1
 800123e:	9202      	str	r2, [sp, #8]
 8001240:	429a      	cmp	r2, r3
 8001242:	da0b      	bge.n	800125c <LCD_WriteChar+0x158>
 8001244:	9a01      	ldr	r2, [sp, #4]
 8001246:	3201      	adds	r2, #1
 8001248:	b292      	uxth	r2, r2
 800124a:	9201      	str	r2, [sp, #4]
 800124c:	465a      	mov	r2, fp
 800124e:	2a01      	cmp	r2, #1
 8001250:	d1bb      	bne.n	80011ca <LCD_WriteChar+0xc6>
 8001252:	4642      	mov	r2, r8
 8001254:	44d8      	add	r8, fp
 8001256:	7816      	ldrb	r6, [r2, #0]
 8001258:	2800      	cmp	r0, #0
 800125a:	d1c3      	bne.n	80011e4 <LCD_WriteChar+0xe0>
 800125c:	b007      	add	sp, #28
 800125e:	bcf0      	pop	{r4, r5, r6, r7}
 8001260:	46bb      	mov	fp, r7
 8001262:	46b2      	mov	sl, r6
 8001264:	46a9      	mov	r9, r5
 8001266:	46a0      	mov	r8, r4
 8001268:	bdf0      	pop	{r4, r5, r6, r7, pc}
 800126a:	1a1b      	subs	r3, r3, r0
 800126c:	b2da      	uxtb	r2, r3
 800126e:	e785      	b.n	800117c <LCD_WriteChar+0x78>
 8001270:	897a      	ldrh	r2, [r7, #10]
 8001272:	89b9      	ldrh	r1, [r7, #12]
 8001274:	4694      	mov	ip, r2
 8001276:	9a01      	ldr	r2, [sp, #4]
 8001278:	9e04      	ldr	r6, [sp, #16]
 800127a:	3a01      	subs	r2, #1
 800127c:	188a      	adds	r2, r1, r2
 800127e:	18d3      	adds	r3, r2, r3
 8001280:	0032      	movs	r2, r6
 8001282:	3a01      	subs	r2, #1
 8001284:	4462      	add	r2, ip
 8001286:	1812      	adds	r2, r2, r0
 8001288:	9801      	ldr	r0, [sp, #4]
 800128a:	b292      	uxth	r2, r2
 800128c:	4681      	mov	r9, r0
 800128e:	0030      	movs	r0, r6
 8001290:	4449      	add	r1, r9
 8001292:	4460      	add	r0, ip
 8001294:	b29b      	uxth	r3, r3
 8001296:	b289      	uxth	r1, r1
 8001298:	69be      	ldr	r6, [r7, #24]
 800129a:	b280      	uxth	r0, r0
 800129c:	6a7c      	ldr	r4, [r7, #36]	; 0x24
 800129e:	47b0      	blx	r6
 80012a0:	0001      	movs	r1, r0
 80012a2:	0038      	movs	r0, r7
 80012a4:	f7ff fb04 	bl	80008b0 <LCD_String_Interpretator>
 80012a8:	6c3a      	ldr	r2, [r7, #64]	; 0x40
 80012aa:	2a00      	cmp	r2, #0
 80012ac:	d003      	beq.n	80012b6 <LCD_WriteChar+0x1b2>
 80012ae:	2344      	movs	r3, #68	; 0x44
 80012b0:	5afb      	ldrh	r3, [r7, r3]
 80012b2:	041b      	lsls	r3, r3, #16
 80012b4:	6193      	str	r3, [r2, #24]
 80012b6:	6bbb      	ldr	r3, [r7, #56]	; 0x38
 80012b8:	8fba      	ldrh	r2, [r7, #60]	; 0x3c
 80012ba:	619a      	str	r2, [r3, #24]
 80012bc:	2240      	movs	r2, #64	; 0x40
 80012be:	6823      	ldr	r3, [r4, #0]
 80012c0:	4393      	bics	r3, r2
 80012c2:	6023      	str	r3, [r4, #0]
 80012c4:	6823      	ldr	r3, [r4, #0]
 80012c6:	4a55      	ldr	r2, [pc, #340]	; (800141c <LCD_WriteChar+0x318>)
 80012c8:	4013      	ands	r3, r2
 80012ca:	6023      	str	r3, [r4, #0]
 80012cc:	6863      	ldr	r3, [r4, #4]
 80012ce:	4a54      	ldr	r2, [pc, #336]	; (8001420 <LCD_WriteChar+0x31c>)
 80012d0:	4013      	ands	r3, r2
 80012d2:	6063      	str	r3, [r4, #4]
 80012d4:	2348      	movs	r3, #72	; 0x48
 80012d6:	5cfb      	ldrb	r3, [r7, r3]
 80012d8:	6862      	ldr	r2, [r4, #4]
 80012da:	2b02      	cmp	r3, #2
 80012dc:	d07a      	beq.n	80013d4 <LCD_WriteChar+0x2d0>
 80012de:	23e0      	movs	r3, #224	; 0xe0
 80012e0:	00db      	lsls	r3, r3, #3
 80012e2:	4313      	orrs	r3, r2
 80012e4:	6063      	str	r3, [r4, #4]
 80012e6:	2240      	movs	r2, #64	; 0x40
 80012e8:	6823      	ldr	r3, [r4, #0]
 80012ea:	4313      	orrs	r3, r2
 80012ec:	6023      	str	r3, [r4, #0]
 80012ee:	4643      	mov	r3, r8
 80012f0:	785b      	ldrb	r3, [r3, #1]
 80012f2:	2b00      	cmp	r3, #0
 80012f4:	d045      	beq.n	8001382 <LCD_WriteChar+0x27e>
 80012f6:	2148      	movs	r1, #72	; 0x48
 80012f8:	4689      	mov	r9, r1
 80012fa:	4641      	mov	r1, r8
 80012fc:	4643      	mov	r3, r8
 80012fe:	2200      	movs	r2, #0
 8001300:	46ac      	mov	ip, r5
 8001302:	000e      	movs	r6, r1
 8001304:	46b8      	mov	r8, r7
 8001306:	781b      	ldrb	r3, [r3, #0]
 8001308:	9f05      	ldr	r7, [sp, #20]
 800130a:	9202      	str	r2, [sp, #8]
 800130c:	9110      	str	r1, [sp, #64]	; 0x40
 800130e:	3202      	adds	r2, #2
 8001310:	4659      	mov	r1, fp
 8001312:	2901      	cmp	r1, #1
 8001314:	d072      	beq.n	80013fc <LCD_WriteChar+0x2f8>
 8001316:	2902      	cmp	r1, #2
 8001318:	d073      	beq.n	8001402 <LCD_WriteChar+0x2fe>
 800131a:	2903      	cmp	r1, #3
 800131c:	d074      	beq.n	8001408 <LCD_WriteChar+0x304>
 800131e:	9903      	ldr	r1, [sp, #12]
 8001320:	680d      	ldr	r5, [r1, #0]
 8001322:	4459      	add	r1, fp
 8001324:	9103      	str	r1, [sp, #12]
 8001326:	2b00      	cmp	r3, #0
 8001328:	d02a      	beq.n	8001380 <LCD_WriteChar+0x27c>
 800132a:	9610      	str	r6, [sp, #64]	; 0x40
 800132c:	9b10      	ldr	r3, [sp, #64]	; 0x40
 800132e:	4666      	mov	r6, ip
 8001330:	2000      	movs	r0, #0
 8001332:	469c      	mov	ip, r3
 8001334:	9501      	str	r5, [sp, #4]
 8001336:	9b01      	ldr	r3, [sp, #4]
 8001338:	0031      	movs	r1, r6
 800133a:	4083      	lsls	r3, r0
 800133c:	421f      	tst	r7, r3
 800133e:	d100      	bne.n	8001342 <LCD_WriteChar+0x23e>
 8001340:	4651      	mov	r1, sl
 8001342:	68a3      	ldr	r3, [r4, #8]
 8001344:	421a      	tst	r2, r3
 8001346:	d105      	bne.n	8001354 <LCD_WriteChar+0x250>
 8001348:	9d01      	ldr	r5, [sp, #4]
 800134a:	46c0      	nop			; (mov r8, r8)
 800134c:	68a3      	ldr	r3, [r4, #8]
 800134e:	421a      	tst	r2, r3
 8001350:	d0fb      	beq.n	800134a <LCD_WriteChar+0x246>
 8001352:	9501      	str	r5, [sp, #4]
 8001354:	4643      	mov	r3, r8
 8001356:	464d      	mov	r5, r9
 8001358:	5d5b      	ldrb	r3, [r3, r5]
 800135a:	2b02      	cmp	r3, #2
 800135c:	d13f      	bne.n	80013de <LCD_WriteChar+0x2da>
 800135e:	81a1      	strh	r1, [r4, #12]
 8001360:	4663      	mov	r3, ip
 8001362:	781b      	ldrb	r3, [r3, #0]
 8001364:	3001      	adds	r0, #1
 8001366:	4283      	cmp	r3, r0
 8001368:	dce5      	bgt.n	8001336 <LCD_WriteChar+0x232>
 800136a:	4661      	mov	r1, ip
 800136c:	46b4      	mov	ip, r6
 800136e:	000e      	movs	r6, r1
 8001370:	9110      	str	r1, [sp, #64]	; 0x40
 8001372:	9902      	ldr	r1, [sp, #8]
 8001374:	3101      	adds	r1, #1
 8001376:	9102      	str	r1, [sp, #8]
 8001378:	0008      	movs	r0, r1
 800137a:	7871      	ldrb	r1, [r6, #1]
 800137c:	4281      	cmp	r1, r0
 800137e:	dcc7      	bgt.n	8001310 <LCD_WriteChar+0x20c>
 8001380:	4647      	mov	r7, r8
 8001382:	68a3      	ldr	r3, [r4, #8]
 8001384:	2202      	movs	r2, #2
 8001386:	079b      	lsls	r3, r3, #30
 8001388:	d403      	bmi.n	8001392 <LCD_WriteChar+0x28e>
 800138a:	46c0      	nop			; (mov r8, r8)
 800138c:	68a3      	ldr	r3, [r4, #8]
 800138e:	421a      	tst	r2, r3
 8001390:	d0fb      	beq.n	800138a <LCD_WriteChar+0x286>
 8001392:	68a3      	ldr	r3, [r4, #8]
 8001394:	2280      	movs	r2, #128	; 0x80
 8001396:	061b      	lsls	r3, r3, #24
 8001398:	d503      	bpl.n	80013a2 <LCD_WriteChar+0x29e>
 800139a:	46c0      	nop			; (mov r8, r8)
 800139c:	68a3      	ldr	r3, [r4, #8]
 800139e:	421a      	tst	r2, r3
 80013a0:	d1fb      	bne.n	800139a <LCD_WriteChar+0x296>
 80013a2:	2240      	movs	r2, #64	; 0x40
 80013a4:	6823      	ldr	r3, [r4, #0]
 80013a6:	4393      	bics	r3, r2
 80013a8:	6023      	str	r3, [r4, #0]
 80013aa:	6c3b      	ldr	r3, [r7, #64]	; 0x40
 80013ac:	2b00      	cmp	r3, #0
 80013ae:	d100      	bne.n	80013b2 <LCD_WriteChar+0x2ae>
 80013b0:	e754      	b.n	800125c <LCD_WriteChar+0x158>
 80013b2:	2244      	movs	r2, #68	; 0x44
 80013b4:	5aba      	ldrh	r2, [r7, r2]
 80013b6:	619a      	str	r2, [r3, #24]
 80013b8:	e750      	b.n	800125c <LCD_WriteChar+0x158>
 80013ba:	4642      	mov	r2, r8
 80013bc:	8816      	ldrh	r6, [r2, #0]
 80013be:	e70e      	b.n	80011de <LCD_WriteChar+0xda>
 80013c0:	4642      	mov	r2, r8
 80013c2:	7856      	ldrb	r6, [r2, #1]
 80013c4:	7892      	ldrb	r2, [r2, #2]
 80013c6:	0236      	lsls	r6, r6, #8
 80013c8:	0412      	lsls	r2, r2, #16
 80013ca:	4316      	orrs	r6, r2
 80013cc:	4642      	mov	r2, r8
 80013ce:	7812      	ldrb	r2, [r2, #0]
 80013d0:	4316      	orrs	r6, r2
 80013d2:	e704      	b.n	80011de <LCD_WriteChar+0xda>
 80013d4:	23f0      	movs	r3, #240	; 0xf0
 80013d6:	011b      	lsls	r3, r3, #4
 80013d8:	4313      	orrs	r3, r2
 80013da:	6063      	str	r3, [r4, #4]
 80013dc:	e783      	b.n	80012e6 <LCD_WriteChar+0x1e2>
 80013de:	b2cb      	uxtb	r3, r1
 80013e0:	7323      	strb	r3, [r4, #12]
 80013e2:	68a3      	ldr	r3, [r4, #8]
 80013e4:	0a09      	lsrs	r1, r1, #8
 80013e6:	b2c9      	uxtb	r1, r1
 80013e8:	421a      	tst	r2, r3
 80013ea:	d105      	bne.n	80013f8 <LCD_WriteChar+0x2f4>
 80013ec:	9d01      	ldr	r5, [sp, #4]
 80013ee:	46c0      	nop			; (mov r8, r8)
 80013f0:	68a3      	ldr	r3, [r4, #8]
 80013f2:	421a      	tst	r2, r3
 80013f4:	d0fb      	beq.n	80013ee <LCD_WriteChar+0x2ea>
 80013f6:	9501      	str	r5, [sp, #4]
 80013f8:	7321      	strb	r1, [r4, #12]
 80013fa:	e7b1      	b.n	8001360 <LCD_WriteChar+0x25c>
 80013fc:	9903      	ldr	r1, [sp, #12]
 80013fe:	780d      	ldrb	r5, [r1, #0]
 8001400:	e78f      	b.n	8001322 <LCD_WriteChar+0x21e>
 8001402:	9903      	ldr	r1, [sp, #12]
 8001404:	880d      	ldrh	r5, [r1, #0]
 8001406:	e78c      	b.n	8001322 <LCD_WriteChar+0x21e>
 8001408:	9803      	ldr	r0, [sp, #12]
 800140a:	7841      	ldrb	r1, [r0, #1]
 800140c:	7885      	ldrb	r5, [r0, #2]
 800140e:	0209      	lsls	r1, r1, #8
 8001410:	042d      	lsls	r5, r5, #16
 8001412:	430d      	orrs	r5, r1
 8001414:	7801      	ldrb	r1, [r0, #0]
 8001416:	430d      	orrs	r5, r1
 8001418:	0001      	movs	r1, r0
 800141a:	e782      	b.n	8001322 <LCD_WriteChar+0x21e>
 800141c:	ffff5bff 	.word	0xffff5bff
 8001420:	fffff0ff 	.word	0xfffff0ff

08001424 <LCD_WriteString>:
 8001424:	b5f0      	push	{r4, r5, r6, r7, lr}
 8001426:	4657      	mov	r7, sl
 8001428:	464e      	mov	r6, r9
 800142a:	4645      	mov	r5, r8
 800142c:	46de      	mov	lr, fp
 800142e:	b5e0      	push	{r5, r6, r7, lr}
 8001430:	001e      	movs	r6, r3
 8001432:	b085      	sub	sp, #20
 8001434:	9b0e      	ldr	r3, [sp, #56]	; 0x38
 8001436:	0007      	movs	r7, r0
 8001438:	4698      	mov	r8, r3
 800143a:	9b0f      	ldr	r3, [sp, #60]	; 0x3c
 800143c:	000c      	movs	r4, r1
 800143e:	4699      	mov	r9, r3
 8001440:	9b10      	ldr	r3, [sp, #64]	; 0x40
 8001442:	0015      	movs	r5, r2
 8001444:	469a      	mov	sl, r3
 8001446:	ab11      	add	r3, sp, #68	; 0x44
 8001448:	781b      	ldrb	r3, [r3, #0]
 800144a:	469b      	mov	fp, r3
 800144c:	7833      	ldrb	r3, [r6, #0]
 800144e:	2b00      	cmp	r3, #0
 8001450:	d023      	beq.n	800149a <LCD_WriteString+0x76>
 8001452:	4642      	mov	r2, r8
 8001454:	7812      	ldrb	r2, [r2, #0]
 8001456:	88b9      	ldrh	r1, [r7, #4]
 8001458:	18a2      	adds	r2, r4, r2
 800145a:	428a      	cmp	r2, r1
 800145c:	dd08      	ble.n	8001470 <LCD_WriteString+0x4c>
 800145e:	4642      	mov	r2, r8
 8001460:	7851      	ldrb	r1, [r2, #1]
 8001462:	88fa      	ldrh	r2, [r7, #6]
 8001464:	186d      	adds	r5, r5, r1
 8001466:	b2ad      	uxth	r5, r5
 8001468:	1869      	adds	r1, r5, r1
 800146a:	2400      	movs	r4, #0
 800146c:	4291      	cmp	r1, r2
 800146e:	dc14      	bgt.n	800149a <LCD_WriteString+0x76>
 8001470:	465a      	mov	r2, fp
 8001472:	9203      	str	r2, [sp, #12]
 8001474:	4652      	mov	r2, sl
 8001476:	9202      	str	r2, [sp, #8]
 8001478:	464a      	mov	r2, r9
 800147a:	9201      	str	r2, [sp, #4]
 800147c:	4642      	mov	r2, r8
 800147e:	0021      	movs	r1, r4
 8001480:	9200      	str	r2, [sp, #0]
 8001482:	0038      	movs	r0, r7
 8001484:	002a      	movs	r2, r5
 8001486:	f7ff fe3d 	bl	8001104 <LCD_WriteChar>
 800148a:	4643      	mov	r3, r8
 800148c:	3601      	adds	r6, #1
 800148e:	781a      	ldrb	r2, [r3, #0]
 8001490:	7833      	ldrb	r3, [r6, #0]
 8001492:	18a4      	adds	r4, r4, r2
 8001494:	b2a4      	uxth	r4, r4
 8001496:	2b00      	cmp	r3, #0
 8001498:	d1dd      	bne.n	8001456 <LCD_WriteString+0x32>
 800149a:	81fc      	strh	r4, [r7, #14]
 800149c:	823d      	strh	r5, [r7, #16]
 800149e:	b005      	add	sp, #20
 80014a0:	bcf0      	pop	{r4, r5, r6, r7}
 80014a2:	46bb      	mov	fp, r7
 80014a4:	46b2      	mov	sl, r6
 80014a6:	46a9      	mov	r9, r5
 80014a8:	46a0      	mov	r8, r4
 80014aa:	bdf0      	pop	{r4, r5, r6, r7, pc}

080014ac <ST7789_Init>:
 80014ac:	1e03      	subs	r3, r0, #0
 80014ae:	d00a      	beq.n	80014c6 <ST7789_Init+0x1a>
 80014b0:	2802      	cmp	r0, #2
 80014b2:	d00b      	beq.n	80014cc <ST7789_Init+0x20>
 80014b4:	2801      	cmp	r0, #1
 80014b6:	d00b      	beq.n	80014d0 <ST7789_Init+0x24>
 80014b8:	3b03      	subs	r3, #3
 80014ba:	1e5a      	subs	r2, r3, #1
 80014bc:	4193      	sbcs	r3, r2
 80014be:	22af      	movs	r2, #175	; 0xaf
 80014c0:	425b      	negs	r3, r3
 80014c2:	4393      	bics	r3, r2
 80014c4:	33b0      	adds	r3, #176	; 0xb0
 80014c6:	4803      	ldr	r0, [pc, #12]	; (80014d4 <ST7789_Init+0x28>)
 80014c8:	75c3      	strb	r3, [r0, #23]
 80014ca:	4770      	bx	lr
 80014cc:	23d4      	movs	r3, #212	; 0xd4
 80014ce:	e7fa      	b.n	80014c6 <ST7789_Init+0x1a>
 80014d0:	2364      	movs	r3, #100	; 0x64
 80014d2:	e7f8      	b.n	80014c6 <ST7789_Init+0x1a>
 80014d4:	20000010 	.word	0x20000010

080014d8 <ST7789_SetWindow>:
 80014d8:	b530      	push	{r4, r5, lr}
 80014da:	0004      	movs	r4, r0
 80014dc:	4805      	ldr	r0, [pc, #20]	; (80014f4 <ST7789_SetWindow+0x1c>)
 80014de:	0a25      	lsrs	r5, r4, #8
 80014e0:	7104      	strb	r4, [r0, #4]
 80014e2:	ba49      	rev16	r1, r1
 80014e4:	0a14      	lsrs	r4, r2, #8
 80014e6:	ba5b      	rev16	r3, r3
 80014e8:	70c5      	strb	r5, [r0, #3]
 80014ea:	7144      	strb	r4, [r0, #5]
 80014ec:	7182      	strb	r2, [r0, #6]
 80014ee:	8141      	strh	r1, [r0, #10]
 80014f0:	8183      	strh	r3, [r0, #12]
 80014f2:	bd30      	pop	{r4, r5, pc}
 80014f4:	20000080 	.word	0x20000080

080014f8 <ST7789_SleepIn>:
 80014f8:	4800      	ldr	r0, [pc, #0]	; (80014fc <ST7789_SleepIn+0x4>)
 80014fa:	4770      	bx	lr
 80014fc:	20000094 	.word	0x20000094

08001500 <ST7789_SleepOut>:
 8001500:	4800      	ldr	r0, [pc, #0]	; (8001504 <ST7789_SleepOut+0x4>)
 8001502:	4770      	bx	lr
 8001504:	2000009c 	.word	0x2000009c

08001508 <LL_GPIO_Init>:
 8001508:	b5f0      	push	{r4, r5, r6, r7, lr}
 800150a:	46de      	mov	lr, fp
 800150c:	4645      	mov	r5, r8
 800150e:	4657      	mov	r7, sl
 8001510:	464e      	mov	r6, r9
 8001512:	2201      	movs	r2, #1
 8001514:	b5e0      	push	{r5, r6, r7, lr}
 8001516:	680d      	ldr	r5, [r1, #0]
 8001518:	2300      	movs	r3, #0
 800151a:	4693      	mov	fp, r2
 800151c:	b083      	sub	sp, #12
 800151e:	2d00      	cmp	r5, #0
 8001520:	d11a      	bne.n	8001558 <LL_GPIO_Init+0x50>
 8001522:	e05a      	b.n	80015da <LL_GPIO_Init+0xd2>
 8001524:	68c2      	ldr	r2, [r0, #12]
 8001526:	4691      	mov	r9, r2
 8001528:	0022      	movs	r2, r4
 800152a:	4362      	muls	r2, r4
 800152c:	0054      	lsls	r4, r2, #1
 800152e:	18a4      	adds	r4, r4, r2
 8001530:	43e6      	mvns	r6, r4
 8001532:	464f      	mov	r7, r9
 8001534:	46b0      	mov	r8, r6
 8001536:	690e      	ldr	r6, [r1, #16]
 8001538:	43a7      	bics	r7, r4
 800153a:	4356      	muls	r6, r2
 800153c:	433e      	orrs	r6, r7
 800153e:	60c6      	str	r6, [r0, #12]
 8001540:	4646      	mov	r6, r8
 8001542:	6804      	ldr	r4, [r0, #0]
 8001544:	4026      	ands	r6, r4
 8001546:	0034      	movs	r4, r6
 8001548:	4666      	mov	r6, ip
 800154a:	4372      	muls	r2, r6
 800154c:	4322      	orrs	r2, r4
 800154e:	6002      	str	r2, [r0, #0]
 8001550:	002a      	movs	r2, r5
 8001552:	3301      	adds	r3, #1
 8001554:	40da      	lsrs	r2, r3
 8001556:	d040      	beq.n	80015da <LL_GPIO_Init+0xd2>
 8001558:	465a      	mov	r2, fp
 800155a:	002c      	movs	r4, r5
 800155c:	409a      	lsls	r2, r3
 800155e:	4014      	ands	r4, r2
 8001560:	4215      	tst	r5, r2
 8001562:	d0f5      	beq.n	8001550 <LL_GPIO_Init+0x48>
 8001564:	684a      	ldr	r2, [r1, #4]
 8001566:	4694      	mov	ip, r2
 8001568:	3a01      	subs	r2, #1
 800156a:	2a01      	cmp	r2, #1
 800156c:	d8da      	bhi.n	8001524 <LL_GPIO_Init+0x1c>
 800156e:	6882      	ldr	r2, [r0, #8]
 8001570:	4692      	mov	sl, r2
 8001572:	0022      	movs	r2, r4
 8001574:	4362      	muls	r2, r4
 8001576:	0056      	lsls	r6, r2, #1
 8001578:	46b1      	mov	r9, r6
 800157a:	4491      	add	r9, r2
 800157c:	464e      	mov	r6, r9
 800157e:	43f6      	mvns	r6, r6
 8001580:	46b0      	mov	r8, r6
 8001582:	688e      	ldr	r6, [r1, #8]
 8001584:	4657      	mov	r7, sl
 8001586:	4356      	muls	r6, r2
 8001588:	9601      	str	r6, [sp, #4]
 800158a:	464e      	mov	r6, r9
 800158c:	43b7      	bics	r7, r6
 800158e:	003e      	movs	r6, r7
 8001590:	9f01      	ldr	r7, [sp, #4]
 8001592:	4337      	orrs	r7, r6
 8001594:	6087      	str	r7, [r0, #8]
 8001596:	68cf      	ldr	r7, [r1, #12]
 8001598:	6846      	ldr	r6, [r0, #4]
 800159a:	4367      	muls	r7, r4
 800159c:	43a6      	bics	r6, r4
 800159e:	433e      	orrs	r6, r7
 80015a0:	6046      	str	r6, [r0, #4]
 80015a2:	68c6      	ldr	r6, [r0, #12]
 80015a4:	46b2      	mov	sl, r6
 80015a6:	690e      	ldr	r6, [r1, #16]
 80015a8:	4657      	mov	r7, sl
 80015aa:	4356      	muls	r6, r2
 80015ac:	9601      	str	r6, [sp, #4]
 80015ae:	464e      	mov	r6, r9
 80015b0:	43b7      	bics	r7, r6
 80015b2:	003e      	movs	r6, r7
 80015b4:	9f01      	ldr	r7, [sp, #4]
 80015b6:	4337      	orrs	r7, r6
 80015b8:	4666      	mov	r6, ip
 80015ba:	60c7      	str	r7, [r0, #12]
 80015bc:	2e02      	cmp	r6, #2
 80015be:	d1bf      	bne.n	8001540 <LL_GPIO_Init+0x38>
 80015c0:	2cff      	cmp	r4, #255	; 0xff
 80015c2:	d812      	bhi.n	80015ea <LL_GPIO_Init+0xe2>
 80015c4:	0016      	movs	r6, r2
 80015c6:	4356      	muls	r6, r2
 80015c8:	6a04      	ldr	r4, [r0, #32]
 80015ca:	0137      	lsls	r7, r6, #4
 80015cc:	1bbf      	subs	r7, r7, r6
 80015ce:	43bc      	bics	r4, r7
 80015d0:	694f      	ldr	r7, [r1, #20]
 80015d2:	437e      	muls	r6, r7
 80015d4:	4334      	orrs	r4, r6
 80015d6:	6204      	str	r4, [r0, #32]
 80015d8:	e7b2      	b.n	8001540 <LL_GPIO_Init+0x38>
 80015da:	2000      	movs	r0, #0
 80015dc:	b003      	add	sp, #12
 80015de:	bcf0      	pop	{r4, r5, r6, r7}
 80015e0:	46bb      	mov	fp, r7
 80015e2:	46b2      	mov	sl, r6
 80015e4:	46a9      	mov	r9, r5
 80015e6:	46a0      	mov	r8, r4
 80015e8:	bdf0      	pop	{r4, r5, r6, r7, pc}
 80015ea:	0a24      	lsrs	r4, r4, #8
 80015ec:	4364      	muls	r4, r4
 80015ee:	4364      	muls	r4, r4
 80015f0:	6a46      	ldr	r6, [r0, #36]	; 0x24
 80015f2:	0127      	lsls	r7, r4, #4
 80015f4:	1b3f      	subs	r7, r7, r4
 80015f6:	43be      	bics	r6, r7
 80015f8:	694f      	ldr	r7, [r1, #20]
 80015fa:	437c      	muls	r4, r7
 80015fc:	4334      	orrs	r4, r6
 80015fe:	6244      	str	r4, [r0, #36]	; 0x24
 8001600:	e79e      	b.n	8001540 <LL_GPIO_Init+0x38>
 8001602:	46c0      	nop			; (mov r8, r8)

08001604 <LL_SPI_Init>:
 8001604:	6803      	ldr	r3, [r0, #0]
 8001606:	0002      	movs	r2, r0
 8001608:	b570      	push	{r4, r5, r6, lr}
 800160a:	2001      	movs	r0, #1
 800160c:	065b      	lsls	r3, r3, #25
 800160e:	d429      	bmi.n	8001664 <LL_SPI_Init+0x60>
 8001610:	684e      	ldr	r6, [r1, #4]
 8001612:	680b      	ldr	r3, [r1, #0]
 8001614:	6948      	ldr	r0, [r1, #20]
 8001616:	4333      	orrs	r3, r6
 8001618:	68ce      	ldr	r6, [r1, #12]
 800161a:	6815      	ldr	r5, [r2, #0]
 800161c:	4333      	orrs	r3, r6
 800161e:	690e      	ldr	r6, [r1, #16]
 8001620:	6a0c      	ldr	r4, [r1, #32]
 8001622:	4333      	orrs	r3, r6
 8001624:	698e      	ldr	r6, [r1, #24]
 8001626:	4303      	orrs	r3, r0
 8001628:	4333      	orrs	r3, r6
 800162a:	69ce      	ldr	r6, [r1, #28]
 800162c:	0c00      	lsrs	r0, r0, #16
 800162e:	4333      	orrs	r3, r6
 8001630:	4e10      	ldr	r6, [pc, #64]	; (8001674 <LL_SPI_Init+0x70>)
 8001632:	4323      	orrs	r3, r4
 8001634:	4035      	ands	r5, r6
 8001636:	432b      	orrs	r3, r5
 8001638:	6013      	str	r3, [r2, #0]
 800163a:	6853      	ldr	r3, [r2, #4]
 800163c:	688d      	ldr	r5, [r1, #8]
 800163e:	4e0e      	ldr	r6, [pc, #56]	; (8001678 <LL_SPI_Init+0x74>)
 8001640:	4328      	orrs	r0, r5
 8001642:	4033      	ands	r3, r6
 8001644:	4318      	orrs	r0, r3
 8001646:	2380      	movs	r3, #128	; 0x80
 8001648:	6050      	str	r0, [r2, #4]
 800164a:	011b      	lsls	r3, r3, #4
 800164c:	429d      	cmp	r5, r3
 800164e:	d204      	bcs.n	800165a <LL_SPI_Init+0x56>
 8001650:	2080      	movs	r0, #128	; 0x80
 8001652:	6853      	ldr	r3, [r2, #4]
 8001654:	0140      	lsls	r0, r0, #5
 8001656:	4303      	orrs	r3, r0
 8001658:	6053      	str	r3, [r2, #4]
 800165a:	2380      	movs	r3, #128	; 0x80
 800165c:	2000      	movs	r0, #0
 800165e:	019b      	lsls	r3, r3, #6
 8001660:	429c      	cmp	r4, r3
 8001662:	d004      	beq.n	800166e <LL_SPI_Init+0x6a>
 8001664:	69d3      	ldr	r3, [r2, #28]
 8001666:	4905      	ldr	r1, [pc, #20]	; (800167c <LL_SPI_Init+0x78>)
 8001668:	400b      	ands	r3, r1
 800166a:	61d3      	str	r3, [r2, #28]
 800166c:	bd70      	pop	{r4, r5, r6, pc}
 800166e:	8c8b      	ldrh	r3, [r1, #36]	; 0x24
 8001670:	6113      	str	r3, [r2, #16]
 8001672:	e7f7      	b.n	8001664 <LL_SPI_Init+0x60>
 8001674:	ffff0040 	.word	0xffff0040
 8001678:	fffff0fb 	.word	0xfffff0fb
 800167c:	fffff7ff 	.word	0xfffff7ff

08001680 <LL_TIM_Init>:
 8001680:	4a1b      	ldr	r2, [pc, #108]	; (80016f0 <LL_TIM_Init+0x70>)
 8001682:	6803      	ldr	r3, [r0, #0]
 8001684:	4290      	cmp	r0, r2
 8001686:	d02e      	beq.n	80016e6 <LL_TIM_Init+0x66>
 8001688:	2280      	movs	r2, #128	; 0x80
 800168a:	05d2      	lsls	r2, r2, #23
 800168c:	4290      	cmp	r0, r2
 800168e:	d017      	beq.n	80016c0 <LL_TIM_Init+0x40>
 8001690:	4a18      	ldr	r2, [pc, #96]	; (80016f4 <LL_TIM_Init+0x74>)
 8001692:	4290      	cmp	r0, r2
 8001694:	d014      	beq.n	80016c0 <LL_TIM_Init+0x40>
 8001696:	4a18      	ldr	r2, [pc, #96]	; (80016f8 <LL_TIM_Init+0x78>)
 8001698:	4290      	cmp	r0, r2
 800169a:	d015      	beq.n	80016c8 <LL_TIM_Init+0x48>
 800169c:	4a17      	ldr	r2, [pc, #92]	; (80016fc <LL_TIM_Init+0x7c>)
 800169e:	4290      	cmp	r0, r2
 80016a0:	d002      	beq.n	80016a8 <LL_TIM_Init+0x28>
 80016a2:	4a17      	ldr	r2, [pc, #92]	; (8001700 <LL_TIM_Init+0x80>)
 80016a4:	4290      	cmp	r0, r2
 80016a6:	d113      	bne.n	80016d0 <LL_TIM_Init+0x50>
 80016a8:	4a16      	ldr	r2, [pc, #88]	; (8001704 <LL_TIM_Init+0x84>)
 80016aa:	4013      	ands	r3, r2
 80016ac:	68ca      	ldr	r2, [r1, #12]
 80016ae:	4313      	orrs	r3, r2
 80016b0:	6003      	str	r3, [r0, #0]
 80016b2:	688b      	ldr	r3, [r1, #8]
 80016b4:	62c3      	str	r3, [r0, #44]	; 0x2c
 80016b6:	880b      	ldrh	r3, [r1, #0]
 80016b8:	6283      	str	r3, [r0, #40]	; 0x28
 80016ba:	690b      	ldr	r3, [r1, #16]
 80016bc:	6303      	str	r3, [r0, #48]	; 0x30
 80016be:	e00c      	b.n	80016da <LL_TIM_Init+0x5a>
 80016c0:	2270      	movs	r2, #112	; 0x70
 80016c2:	4393      	bics	r3, r2
 80016c4:	684a      	ldr	r2, [r1, #4]
 80016c6:	4313      	orrs	r3, r2
 80016c8:	4a0e      	ldr	r2, [pc, #56]	; (8001704 <LL_TIM_Init+0x84>)
 80016ca:	4013      	ands	r3, r2
 80016cc:	68ca      	ldr	r2, [r1, #12]
 80016ce:	4313      	orrs	r3, r2
 80016d0:	6003      	str	r3, [r0, #0]
 80016d2:	688b      	ldr	r3, [r1, #8]
 80016d4:	62c3      	str	r3, [r0, #44]	; 0x2c
 80016d6:	880b      	ldrh	r3, [r1, #0]
 80016d8:	6283      	str	r3, [r0, #40]	; 0x28
 80016da:	2201      	movs	r2, #1
 80016dc:	6943      	ldr	r3, [r0, #20]
 80016de:	4313      	orrs	r3, r2
 80016e0:	6143      	str	r3, [r0, #20]
 80016e2:	2000      	movs	r0, #0
 80016e4:	4770      	bx	lr
 80016e6:	2270      	movs	r2, #112	; 0x70
 80016e8:	4393      	bics	r3, r2
 80016ea:	684a      	ldr	r2, [r1, #4]
 80016ec:	4313      	orrs	r3, r2
 80016ee:	e7db      	b.n	80016a8 <LL_TIM_Init+0x28>
 80016f0:	40012c00 	.word	0x40012c00
 80016f4:	40000400 	.word	0x40000400
 80016f8:	40002000 	.word	0x40002000
 80016fc:	40014400 	.word	0x40014400
 8001700:	40014800 	.word	0x40014800
 8001704:	fffffcff 	.word	0xfffffcff

08001708 <LL_TIM_OC_Init>:
 8001708:	2380      	movs	r3, #128	; 0x80
 800170a:	b570      	push	{r4, r5, r6, lr}
 800170c:	015b      	lsls	r3, r3, #5
 800170e:	4299      	cmp	r1, r3
 8001710:	d100      	bne.n	8001714 <LL_TIM_OC_Init+0xc>
 8001712:	e0dc      	b.n	80018ce <LL_TIM_OC_Init+0x1c6>
 8001714:	d82d      	bhi.n	8001772 <LL_TIM_OC_Init+0x6a>
 8001716:	2910      	cmp	r1, #16
 8001718:	d100      	bne.n	800171c <LL_TIM_OC_Init+0x14>
 800171a:	e103      	b.n	8001924 <LL_TIM_OC_Init+0x21c>
 800171c:	2380      	movs	r3, #128	; 0x80
 800171e:	005b      	lsls	r3, r3, #1
 8001720:	4299      	cmp	r1, r3
 8001722:	d152      	bne.n	80017ca <LL_TIM_OC_Init+0xc2>
 8001724:	6a01      	ldr	r1, [r0, #32]
 8001726:	4e9d      	ldr	r6, [pc, #628]	; (800199c <LL_TIM_OC_Init+0x294>)
 8001728:	4c9d      	ldr	r4, [pc, #628]	; (80019a0 <LL_TIM_OC_Init+0x298>)
 800172a:	4031      	ands	r1, r6
 800172c:	6201      	str	r1, [r0, #32]
 800172e:	6a03      	ldr	r3, [r0, #32]
 8001730:	6841      	ldr	r1, [r0, #4]
 8001732:	69c5      	ldr	r5, [r0, #28]
 8001734:	4025      	ands	r5, r4
 8001736:	6814      	ldr	r4, [r2, #0]
 8001738:	4325      	orrs	r5, r4
 800173a:	4c9a      	ldr	r4, [pc, #616]	; (80019a4 <LL_TIM_OC_Init+0x29c>)
 800173c:	401c      	ands	r4, r3
 800173e:	6913      	ldr	r3, [r2, #16]
 8001740:	021b      	lsls	r3, r3, #8
 8001742:	4323      	orrs	r3, r4
 8001744:	6854      	ldr	r4, [r2, #4]
 8001746:	4033      	ands	r3, r6
 8001748:	0224      	lsls	r4, r4, #8
 800174a:	431c      	orrs	r4, r3
 800174c:	4b96      	ldr	r3, [pc, #600]	; (80019a8 <LL_TIM_OC_Init+0x2a0>)
 800174e:	4298      	cmp	r0, r3
 8001750:	d100      	bne.n	8001754 <LL_TIM_OC_Init+0x4c>
 8001752:	e074      	b.n	800183e <LL_TIM_OC_Init+0x136>
 8001754:	4b95      	ldr	r3, [pc, #596]	; (80019ac <LL_TIM_OC_Init+0x2a4>)
 8001756:	4298      	cmp	r0, r3
 8001758:	d100      	bne.n	800175c <LL_TIM_OC_Init+0x54>
 800175a:	e070      	b.n	800183e <LL_TIM_OC_Init+0x136>
 800175c:	4b94      	ldr	r3, [pc, #592]	; (80019b0 <LL_TIM_OC_Init+0x2a8>)
 800175e:	4298      	cmp	r0, r3
 8001760:	d100      	bne.n	8001764 <LL_TIM_OC_Init+0x5c>
 8001762:	e06c      	b.n	800183e <LL_TIM_OC_Init+0x136>
 8001764:	68d3      	ldr	r3, [r2, #12]
 8001766:	6041      	str	r1, [r0, #4]
 8001768:	61c5      	str	r5, [r0, #28]
 800176a:	63c3      	str	r3, [r0, #60]	; 0x3c
 800176c:	6204      	str	r4, [r0, #32]
 800176e:	2000      	movs	r0, #0
 8001770:	e04f      	b.n	8001812 <LL_TIM_OC_Init+0x10a>
 8001772:	2380      	movs	r3, #128	; 0x80
 8001774:	025b      	lsls	r3, r3, #9
 8001776:	4299      	cmp	r1, r3
 8001778:	d100      	bne.n	800177c <LL_TIM_OC_Init+0x74>
 800177a:	e07d      	b.n	8001878 <LL_TIM_OC_Init+0x170>
 800177c:	2380      	movs	r3, #128	; 0x80
 800177e:	035b      	lsls	r3, r3, #13
 8001780:	4299      	cmp	r1, r3
 8001782:	d145      	bne.n	8001810 <LL_TIM_OC_Init+0x108>
 8001784:	6a01      	ldr	r1, [r0, #32]
 8001786:	4d8b      	ldr	r5, [pc, #556]	; (80019b4 <LL_TIM_OC_Init+0x2ac>)
 8001788:	4c8b      	ldr	r4, [pc, #556]	; (80019b8 <LL_TIM_OC_Init+0x2b0>)
 800178a:	4029      	ands	r1, r5
 800178c:	6201      	str	r1, [r0, #32]
 800178e:	6a03      	ldr	r3, [r0, #32]
 8001790:	6d41      	ldr	r1, [r0, #84]	; 0x54
 8001792:	4021      	ands	r1, r4
 8001794:	6814      	ldr	r4, [r2, #0]
 8001796:	0224      	lsls	r4, r4, #8
 8001798:	430c      	orrs	r4, r1
 800179a:	4988      	ldr	r1, [pc, #544]	; (80019bc <LL_TIM_OC_Init+0x2b4>)
 800179c:	4019      	ands	r1, r3
 800179e:	6913      	ldr	r3, [r2, #16]
 80017a0:	051b      	lsls	r3, r3, #20
 80017a2:	430b      	orrs	r3, r1
 80017a4:	6851      	ldr	r1, [r2, #4]
 80017a6:	402b      	ands	r3, r5
 80017a8:	0509      	lsls	r1, r1, #20
 80017aa:	430b      	orrs	r3, r1
 80017ac:	497e      	ldr	r1, [pc, #504]	; (80019a8 <LL_TIM_OC_Init+0x2a0>)
 80017ae:	4288      	cmp	r0, r1
 80017b0:	d05a      	beq.n	8001868 <LL_TIM_OC_Init+0x160>
 80017b2:	497e      	ldr	r1, [pc, #504]	; (80019ac <LL_TIM_OC_Init+0x2a4>)
 80017b4:	4288      	cmp	r0, r1
 80017b6:	d057      	beq.n	8001868 <LL_TIM_OC_Init+0x160>
 80017b8:	497d      	ldr	r1, [pc, #500]	; (80019b0 <LL_TIM_OC_Init+0x2a8>)
 80017ba:	4288      	cmp	r0, r1
 80017bc:	d054      	beq.n	8001868 <LL_TIM_OC_Init+0x160>
 80017be:	68d2      	ldr	r2, [r2, #12]
 80017c0:	6544      	str	r4, [r0, #84]	; 0x54
 80017c2:	65c2      	str	r2, [r0, #92]	; 0x5c
 80017c4:	6203      	str	r3, [r0, #32]
 80017c6:	2000      	movs	r0, #0
 80017c8:	e023      	b.n	8001812 <LL_TIM_OC_Init+0x10a>
 80017ca:	2901      	cmp	r1, #1
 80017cc:	d120      	bne.n	8001810 <LL_TIM_OC_Init+0x108>
 80017ce:	6a03      	ldr	r3, [r0, #32]
 80017d0:	4e73      	ldr	r6, [pc, #460]	; (80019a0 <LL_TIM_OC_Init+0x298>)
 80017d2:	438b      	bics	r3, r1
 80017d4:	6203      	str	r3, [r0, #32]
 80017d6:	6a03      	ldr	r3, [r0, #32]
 80017d8:	6845      	ldr	r5, [r0, #4]
 80017da:	6984      	ldr	r4, [r0, #24]
 80017dc:	4034      	ands	r4, r6
 80017de:	6816      	ldr	r6, [r2, #0]
 80017e0:	4334      	orrs	r4, r6
 80017e2:	2602      	movs	r6, #2
 80017e4:	43b3      	bics	r3, r6
 80017e6:	6916      	ldr	r6, [r2, #16]
 80017e8:	4333      	orrs	r3, r6
 80017ea:	438b      	bics	r3, r1
 80017ec:	6851      	ldr	r1, [r2, #4]
 80017ee:	430b      	orrs	r3, r1
 80017f0:	496d      	ldr	r1, [pc, #436]	; (80019a8 <LL_TIM_OC_Init+0x2a0>)
 80017f2:	4288      	cmp	r0, r1
 80017f4:	d00e      	beq.n	8001814 <LL_TIM_OC_Init+0x10c>
 80017f6:	496d      	ldr	r1, [pc, #436]	; (80019ac <LL_TIM_OC_Init+0x2a4>)
 80017f8:	4288      	cmp	r0, r1
 80017fa:	d00b      	beq.n	8001814 <LL_TIM_OC_Init+0x10c>
 80017fc:	496c      	ldr	r1, [pc, #432]	; (80019b0 <LL_TIM_OC_Init+0x2a8>)
 80017fe:	4288      	cmp	r0, r1
 8001800:	d008      	beq.n	8001814 <LL_TIM_OC_Init+0x10c>
 8001802:	68d2      	ldr	r2, [r2, #12]
 8001804:	6045      	str	r5, [r0, #4]
 8001806:	6184      	str	r4, [r0, #24]
 8001808:	6342      	str	r2, [r0, #52]	; 0x34
 800180a:	6203      	str	r3, [r0, #32]
 800180c:	2000      	movs	r0, #0
 800180e:	e000      	b.n	8001812 <LL_TIM_OC_Init+0x10a>
 8001810:	2001      	movs	r0, #1
 8001812:	bd70      	pop	{r4, r5, r6, pc}
 8001814:	2108      	movs	r1, #8
 8001816:	438b      	bics	r3, r1
 8001818:	0019      	movs	r1, r3
 800181a:	6953      	ldr	r3, [r2, #20]
 800181c:	009b      	lsls	r3, r3, #2
 800181e:	430b      	orrs	r3, r1
 8001820:	2104      	movs	r1, #4
 8001822:	438b      	bics	r3, r1
 8001824:	6891      	ldr	r1, [r2, #8]
 8001826:	0089      	lsls	r1, r1, #2
 8001828:	430b      	orrs	r3, r1
 800182a:	495c      	ldr	r1, [pc, #368]	; (800199c <LL_TIM_OC_Init+0x294>)
 800182c:	400d      	ands	r5, r1
 800182e:	6991      	ldr	r1, [r2, #24]
 8001830:	430d      	orrs	r5, r1
 8001832:	495c      	ldr	r1, [pc, #368]	; (80019a4 <LL_TIM_OC_Init+0x29c>)
 8001834:	400d      	ands	r5, r1
 8001836:	69d1      	ldr	r1, [r2, #28]
 8001838:	0049      	lsls	r1, r1, #1
 800183a:	430d      	orrs	r5, r1
 800183c:	e7e1      	b.n	8001802 <LL_TIM_OC_Init+0xfa>
 800183e:	4b60      	ldr	r3, [pc, #384]	; (80019c0 <LL_TIM_OC_Init+0x2b8>)
 8001840:	4e60      	ldr	r6, [pc, #384]	; (80019c4 <LL_TIM_OC_Init+0x2bc>)
 8001842:	401c      	ands	r4, r3
 8001844:	6953      	ldr	r3, [r2, #20]
 8001846:	400e      	ands	r6, r1
 8001848:	029b      	lsls	r3, r3, #10
 800184a:	4323      	orrs	r3, r4
 800184c:	4c5e      	ldr	r4, [pc, #376]	; (80019c8 <LL_TIM_OC_Init+0x2c0>)
 800184e:	4023      	ands	r3, r4
 8001850:	6894      	ldr	r4, [r2, #8]
 8001852:	02a4      	lsls	r4, r4, #10
 8001854:	431c      	orrs	r4, r3
 8001856:	6993      	ldr	r3, [r2, #24]
 8001858:	0119      	lsls	r1, r3, #4
 800185a:	4b5c      	ldr	r3, [pc, #368]	; (80019cc <LL_TIM_OC_Init+0x2c4>)
 800185c:	4331      	orrs	r1, r6
 800185e:	4019      	ands	r1, r3
 8001860:	69d3      	ldr	r3, [r2, #28]
 8001862:	015e      	lsls	r6, r3, #5
 8001864:	4331      	orrs	r1, r6
 8001866:	e77d      	b.n	8001764 <LL_TIM_OC_Init+0x5c>
 8001868:	6845      	ldr	r5, [r0, #4]
 800186a:	6991      	ldr	r1, [r2, #24]
 800186c:	4e58      	ldr	r6, [pc, #352]	; (80019d0 <LL_TIM_OC_Init+0x2c8>)
 800186e:	0289      	lsls	r1, r1, #10
 8001870:	4035      	ands	r5, r6
 8001872:	4329      	orrs	r1, r5
 8001874:	6041      	str	r1, [r0, #4]
 8001876:	e7a2      	b.n	80017be <LL_TIM_OC_Init+0xb6>
 8001878:	6a01      	ldr	r1, [r0, #32]
 800187a:	4d56      	ldr	r5, [pc, #344]	; (80019d4 <LL_TIM_OC_Init+0x2cc>)
 800187c:	4c56      	ldr	r4, [pc, #344]	; (80019d8 <LL_TIM_OC_Init+0x2d0>)
 800187e:	4029      	ands	r1, r5
 8001880:	6201      	str	r1, [r0, #32]
 8001882:	6a03      	ldr	r3, [r0, #32]
 8001884:	6d41      	ldr	r1, [r0, #84]	; 0x54
 8001886:	400c      	ands	r4, r1
 8001888:	6811      	ldr	r1, [r2, #0]
 800188a:	430c      	orrs	r4, r1
 800188c:	4953      	ldr	r1, [pc, #332]	; (80019dc <LL_TIM_OC_Init+0x2d4>)
 800188e:	4019      	ands	r1, r3
 8001890:	6913      	ldr	r3, [r2, #16]
 8001892:	041b      	lsls	r3, r3, #16
 8001894:	430b      	orrs	r3, r1
 8001896:	6851      	ldr	r1, [r2, #4]
 8001898:	402b      	ands	r3, r5
 800189a:	0409      	lsls	r1, r1, #16
 800189c:	430b      	orrs	r3, r1
 800189e:	4942      	ldr	r1, [pc, #264]	; (80019a8 <LL_TIM_OC_Init+0x2a0>)
 80018a0:	4288      	cmp	r0, r1
 80018a2:	d00c      	beq.n	80018be <LL_TIM_OC_Init+0x1b6>
 80018a4:	4941      	ldr	r1, [pc, #260]	; (80019ac <LL_TIM_OC_Init+0x2a4>)
 80018a6:	4288      	cmp	r0, r1
 80018a8:	d009      	beq.n	80018be <LL_TIM_OC_Init+0x1b6>
 80018aa:	4941      	ldr	r1, [pc, #260]	; (80019b0 <LL_TIM_OC_Init+0x2a8>)
 80018ac:	4288      	cmp	r0, r1
 80018ae:	d006      	beq.n	80018be <LL_TIM_OC_Init+0x1b6>
 80018b0:	68d2      	ldr	r2, [r2, #12]
 80018b2:	6544      	str	r4, [r0, #84]	; 0x54
 80018b4:	6d81      	ldr	r1, [r0, #88]	; 0x58
 80018b6:	6582      	str	r2, [r0, #88]	; 0x58
 80018b8:	6203      	str	r3, [r0, #32]
 80018ba:	2000      	movs	r0, #0
 80018bc:	e7a9      	b.n	8001812 <LL_TIM_OC_Init+0x10a>
 80018be:	6845      	ldr	r5, [r0, #4]
 80018c0:	6991      	ldr	r1, [r2, #24]
 80018c2:	4e44      	ldr	r6, [pc, #272]	; (80019d4 <LL_TIM_OC_Init+0x2cc>)
 80018c4:	0209      	lsls	r1, r1, #8
 80018c6:	4035      	ands	r5, r6
 80018c8:	4329      	orrs	r1, r5
 80018ca:	6041      	str	r1, [r0, #4]
 80018cc:	e7f0      	b.n	80018b0 <LL_TIM_OC_Init+0x1a8>
 80018ce:	6a01      	ldr	r1, [r0, #32]
 80018d0:	4e3c      	ldr	r6, [pc, #240]	; (80019c4 <LL_TIM_OC_Init+0x2bc>)
 80018d2:	4c43      	ldr	r4, [pc, #268]	; (80019e0 <LL_TIM_OC_Init+0x2d8>)
 80018d4:	4031      	ands	r1, r6
 80018d6:	6201      	str	r1, [r0, #32]
 80018d8:	6a03      	ldr	r3, [r0, #32]
 80018da:	6845      	ldr	r5, [r0, #4]
 80018dc:	69c1      	ldr	r1, [r0, #28]
 80018de:	4021      	ands	r1, r4
 80018e0:	6814      	ldr	r4, [r2, #0]
 80018e2:	0224      	lsls	r4, r4, #8
 80018e4:	430c      	orrs	r4, r1
 80018e6:	4939      	ldr	r1, [pc, #228]	; (80019cc <LL_TIM_OC_Init+0x2c4>)
 80018e8:	4019      	ands	r1, r3
 80018ea:	6913      	ldr	r3, [r2, #16]
 80018ec:	031b      	lsls	r3, r3, #12
 80018ee:	430b      	orrs	r3, r1
 80018f0:	6851      	ldr	r1, [r2, #4]
 80018f2:	4033      	ands	r3, r6
 80018f4:	0309      	lsls	r1, r1, #12
 80018f6:	430b      	orrs	r3, r1
 80018f8:	492b      	ldr	r1, [pc, #172]	; (80019a8 <LL_TIM_OC_Init+0x2a0>)
 80018fa:	4288      	cmp	r0, r1
 80018fc:	d00c      	beq.n	8001918 <LL_TIM_OC_Init+0x210>
 80018fe:	492b      	ldr	r1, [pc, #172]	; (80019ac <LL_TIM_OC_Init+0x2a4>)
 8001900:	4288      	cmp	r0, r1
 8001902:	d009      	beq.n	8001918 <LL_TIM_OC_Init+0x210>
 8001904:	492a      	ldr	r1, [pc, #168]	; (80019b0 <LL_TIM_OC_Init+0x2a8>)
 8001906:	4288      	cmp	r0, r1
 8001908:	d006      	beq.n	8001918 <LL_TIM_OC_Init+0x210>
 800190a:	68d2      	ldr	r2, [r2, #12]
 800190c:	6045      	str	r5, [r0, #4]
 800190e:	61c4      	str	r4, [r0, #28]
 8001910:	6402      	str	r2, [r0, #64]	; 0x40
 8001912:	6203      	str	r3, [r0, #32]
 8001914:	2000      	movs	r0, #0
 8001916:	e77c      	b.n	8001812 <LL_TIM_OC_Init+0x10a>
 8001918:	4932      	ldr	r1, [pc, #200]	; (80019e4 <LL_TIM_OC_Init+0x2dc>)
 800191a:	400d      	ands	r5, r1
 800191c:	6991      	ldr	r1, [r2, #24]
 800191e:	0189      	lsls	r1, r1, #6
 8001920:	430d      	orrs	r5, r1
 8001922:	e7f2      	b.n	800190a <LL_TIM_OC_Init+0x202>
 8001924:	6a03      	ldr	r3, [r0, #32]
 8001926:	4d2e      	ldr	r5, [pc, #184]	; (80019e0 <LL_TIM_OC_Init+0x2d8>)
 8001928:	438b      	bics	r3, r1
 800192a:	6203      	str	r3, [r0, #32]
 800192c:	6a03      	ldr	r3, [r0, #32]
 800192e:	6846      	ldr	r6, [r0, #4]
 8001930:	6984      	ldr	r4, [r0, #24]
 8001932:	402c      	ands	r4, r5
 8001934:	6815      	ldr	r5, [r2, #0]
 8001936:	022d      	lsls	r5, r5, #8
 8001938:	432c      	orrs	r4, r5
 800193a:	2520      	movs	r5, #32
 800193c:	43ab      	bics	r3, r5
 800193e:	001d      	movs	r5, r3
 8001940:	6913      	ldr	r3, [r2, #16]
 8001942:	011b      	lsls	r3, r3, #4
 8001944:	432b      	orrs	r3, r5
 8001946:	438b      	bics	r3, r1
 8001948:	6851      	ldr	r1, [r2, #4]
 800194a:	010d      	lsls	r5, r1, #4
 800194c:	4916      	ldr	r1, [pc, #88]	; (80019a8 <LL_TIM_OC_Init+0x2a0>)
 800194e:	432b      	orrs	r3, r5
 8001950:	4288      	cmp	r0, r1
 8001952:	d00c      	beq.n	800196e <LL_TIM_OC_Init+0x266>
 8001954:	4915      	ldr	r1, [pc, #84]	; (80019ac <LL_TIM_OC_Init+0x2a4>)
 8001956:	4288      	cmp	r0, r1
 8001958:	d009      	beq.n	800196e <LL_TIM_OC_Init+0x266>
 800195a:	4915      	ldr	r1, [pc, #84]	; (80019b0 <LL_TIM_OC_Init+0x2a8>)
 800195c:	4288      	cmp	r0, r1
 800195e:	d006      	beq.n	800196e <LL_TIM_OC_Init+0x266>
 8001960:	68d2      	ldr	r2, [r2, #12]
 8001962:	6046      	str	r6, [r0, #4]
 8001964:	6184      	str	r4, [r0, #24]
 8001966:	6382      	str	r2, [r0, #56]	; 0x38
 8001968:	6203      	str	r3, [r0, #32]
 800196a:	2000      	movs	r0, #0
 800196c:	e751      	b.n	8001812 <LL_TIM_OC_Init+0x10a>
 800196e:	2180      	movs	r1, #128	; 0x80
 8001970:	438b      	bics	r3, r1
 8001972:	001d      	movs	r5, r3
 8001974:	6953      	ldr	r3, [r2, #20]
 8001976:	3940      	subs	r1, #64	; 0x40
 8001978:	019b      	lsls	r3, r3, #6
 800197a:	432b      	orrs	r3, r5
 800197c:	438b      	bics	r3, r1
 800197e:	6891      	ldr	r1, [r2, #8]
 8001980:	018d      	lsls	r5, r1, #6
 8001982:	4911      	ldr	r1, [pc, #68]	; (80019c8 <LL_TIM_OC_Init+0x2c0>)
 8001984:	432b      	orrs	r3, r5
 8001986:	400e      	ands	r6, r1
 8001988:	6991      	ldr	r1, [r2, #24]
 800198a:	4d0d      	ldr	r5, [pc, #52]	; (80019c0 <LL_TIM_OC_Init+0x2b8>)
 800198c:	0089      	lsls	r1, r1, #2
 800198e:	4331      	orrs	r1, r6
 8001990:	4029      	ands	r1, r5
 8001992:	69d5      	ldr	r5, [r2, #28]
 8001994:	00ee      	lsls	r6, r5, #3
 8001996:	430e      	orrs	r6, r1
 8001998:	e7e2      	b.n	8001960 <LL_TIM_OC_Init+0x258>
 800199a:	46c0      	nop			; (mov r8, r8)
 800199c:	fffffeff 	.word	0xfffffeff
 80019a0:	fffeff8c 	.word	0xfffeff8c
 80019a4:	fffffdff 	.word	0xfffffdff
 80019a8:	40012c00 	.word	0x40012c00
 80019ac:	40014400 	.word	0x40014400
 80019b0:	40014800 	.word	0x40014800
 80019b4:	ffefffff 	.word	0xffefffff
 80019b8:	feff8fff 	.word	0xfeff8fff
 80019bc:	ffdfffff 	.word	0xffdfffff
 80019c0:	fffff7ff 	.word	0xfffff7ff
 80019c4:	ffffefff 	.word	0xffffefff
 80019c8:	fffffbff 	.word	0xfffffbff
 80019cc:	ffffdfff 	.word	0xffffdfff
 80019d0:	fffbffff 	.word	0xfffbffff
 80019d4:	fffeffff 	.word	0xfffeffff
 80019d8:	fffeff8f 	.word	0xfffeff8f
 80019dc:	fffdffff 	.word	0xfffdffff
 80019e0:	feff8cff 	.word	0xfeff8cff
 80019e4:	ffffbfff 	.word	0xffffbfff

080019e8 <LL_Init1msTick>:
 80019e8:	21fa      	movs	r1, #250	; 0xfa
 80019ea:	b510      	push	{r4, lr}
 80019ec:	0089      	lsls	r1, r1, #2
 80019ee:	f7fe fb89 	bl	8000104 <__udivsi3>
 80019f2:	2200      	movs	r2, #0
 80019f4:	4b03      	ldr	r3, [pc, #12]	; (8001a04 <LL_Init1msTick+0x1c>)
 80019f6:	3801      	subs	r0, #1
 80019f8:	6058      	str	r0, [r3, #4]
 80019fa:	609a      	str	r2, [r3, #8]
 80019fc:	3205      	adds	r2, #5
 80019fe:	601a      	str	r2, [r3, #0]
 8001a00:	bd10      	pop	{r4, pc}
 8001a02:	46c0      	nop			; (mov r8, r8)
 8001a04:	e000e010 	.word	0xe000e010

08001a08 <LL_mDelay>:
 8001a08:	4a09      	ldr	r2, [pc, #36]	; (8001a30 <LL_mDelay+0x28>)
 8001a0a:	b082      	sub	sp, #8
 8001a0c:	6813      	ldr	r3, [r2, #0]
 8001a0e:	9301      	str	r3, [sp, #4]
 8001a10:	9b01      	ldr	r3, [sp, #4]
 8001a12:	1c43      	adds	r3, r0, #1
 8001a14:	1e59      	subs	r1, r3, #1
 8001a16:	418b      	sbcs	r3, r1
 8001a18:	2180      	movs	r1, #128	; 0x80
 8001a1a:	18c0      	adds	r0, r0, r3
 8001a1c:	0249      	lsls	r1, r1, #9
 8001a1e:	6813      	ldr	r3, [r2, #0]
 8001a20:	420b      	tst	r3, r1
 8001a22:	d0fc      	beq.n	8001a1e <LL_mDelay+0x16>
 8001a24:	3801      	subs	r0, #1
 8001a26:	2800      	cmp	r0, #0
 8001a28:	d1f9      	bne.n	8001a1e <LL_mDelay+0x16>
 8001a2a:	b002      	add	sp, #8
 8001a2c:	4770      	bx	lr
 8001a2e:	46c0      	nop			; (mov r8, r8)
 8001a30:	e000e010 	.word	0xe000e010

08001a34 <LL_SetSystemCoreClock>:
 8001a34:	4b01      	ldr	r3, [pc, #4]	; (8001a3c <LL_SetSystemCoreClock+0x8>)
 8001a36:	6018      	str	r0, [r3, #0]
 8001a38:	4770      	bx	lr
 8001a3a:	46c0      	nop			; (mov r8, r8)
 8001a3c:	20000000 	.word	0x20000000

08001a40 <__libc_init_array>:
 8001a40:	b570      	push	{r4, r5, r6, lr}
 8001a42:	2600      	movs	r6, #0
 8001a44:	4d0c      	ldr	r5, [pc, #48]	; (8001a78 <__libc_init_array+0x38>)
 8001a46:	4c0d      	ldr	r4, [pc, #52]	; (8001a7c <__libc_init_array+0x3c>)
 8001a48:	1b64      	subs	r4, r4, r5
 8001a4a:	10a4      	asrs	r4, r4, #2
 8001a4c:	42a6      	cmp	r6, r4
 8001a4e:	d109      	bne.n	8001a64 <__libc_init_array+0x24>
 8001a50:	2600      	movs	r6, #0
 8001a52:	f000 f865 	bl	8001b20 <_init>
 8001a56:	4d0a      	ldr	r5, [pc, #40]	; (8001a80 <__libc_init_array+0x40>)
 8001a58:	4c0a      	ldr	r4, [pc, #40]	; (8001a84 <__libc_init_array+0x44>)
 8001a5a:	1b64      	subs	r4, r4, r5
 8001a5c:	10a4      	asrs	r4, r4, #2
 8001a5e:	42a6      	cmp	r6, r4
 8001a60:	d105      	bne.n	8001a6e <__libc_init_array+0x2e>
 8001a62:	bd70      	pop	{r4, r5, r6, pc}
 8001a64:	00b3      	lsls	r3, r6, #2
 8001a66:	58eb      	ldr	r3, [r5, r3]
 8001a68:	4798      	blx	r3
 8001a6a:	3601      	adds	r6, #1
 8001a6c:	e7ee      	b.n	8001a4c <__libc_init_array+0xc>
 8001a6e:	00b3      	lsls	r3, r6, #2
 8001a70:	58eb      	ldr	r3, [r5, r3]
 8001a72:	4798      	blx	r3
 8001a74:	3601      	adds	r6, #1
 8001a76:	e7f2      	b.n	8001a5e <__libc_init_array+0x1e>
 8001a78:	080026e8 	.word	0x080026e8
 8001a7c:	080026e8 	.word	0x080026e8
 8001a80:	080026e8 	.word	0x080026e8
 8001a84:	080026ec 	.word	0x080026ec

08001a88 <memset>:
 8001a88:	0003      	movs	r3, r0
 8001a8a:	1882      	adds	r2, r0, r2
 8001a8c:	4293      	cmp	r3, r2
 8001a8e:	d100      	bne.n	8001a92 <memset+0xa>
 8001a90:	4770      	bx	lr
 8001a92:	7019      	strb	r1, [r3, #0]
 8001a94:	3301      	adds	r3, #1
 8001a96:	e7f9      	b.n	8001a8c <memset+0x4>

08001a98 <__utoa>:
 8001a98:	b5f0      	push	{r4, r5, r6, r7, lr}
 8001a9a:	000c      	movs	r4, r1
 8001a9c:	0016      	movs	r6, r2
 8001a9e:	b08d      	sub	sp, #52	; 0x34
 8001aa0:	2225      	movs	r2, #37	; 0x25
 8001aa2:	0007      	movs	r7, r0
 8001aa4:	4916      	ldr	r1, [pc, #88]	; (8001b00 <__utoa+0x68>)
 8001aa6:	a802      	add	r0, sp, #8
 8001aa8:	f000 f830 	bl	8001b0c <memcpy>
 8001aac:	1e62      	subs	r2, r4, #1
 8001aae:	9200      	str	r2, [sp, #0]
 8001ab0:	1eb3      	subs	r3, r6, #2
 8001ab2:	aa02      	add	r2, sp, #8
 8001ab4:	2500      	movs	r5, #0
 8001ab6:	9201      	str	r2, [sp, #4]
 8001ab8:	2b22      	cmp	r3, #34	; 0x22
 8001aba:	d904      	bls.n	8001ac6 <__utoa+0x2e>
 8001abc:	7025      	strb	r5, [r4, #0]
 8001abe:	002c      	movs	r4, r5
 8001ac0:	0020      	movs	r0, r4
 8001ac2:	b00d      	add	sp, #52	; 0x34
 8001ac4:	bdf0      	pop	{r4, r5, r6, r7, pc}
 8001ac6:	0038      	movs	r0, r7
 8001ac8:	0031      	movs	r1, r6
 8001aca:	f7fe fba1 	bl	8000210 <__aeabi_uidivmod>
 8001ace:	000b      	movs	r3, r1
 8001ad0:	9a01      	ldr	r2, [sp, #4]
 8001ad2:	0029      	movs	r1, r5
 8001ad4:	5cd3      	ldrb	r3, [r2, r3]
 8001ad6:	9a00      	ldr	r2, [sp, #0]
 8001ad8:	3501      	adds	r5, #1
 8001ada:	5553      	strb	r3, [r2, r5]
 8001adc:	003b      	movs	r3, r7
 8001ade:	0007      	movs	r7, r0
 8001ae0:	429e      	cmp	r6, r3
 8001ae2:	d9f0      	bls.n	8001ac6 <__utoa+0x2e>
 8001ae4:	2300      	movs	r3, #0
 8001ae6:	0022      	movs	r2, r4
 8001ae8:	5563      	strb	r3, [r4, r5]
 8001aea:	000b      	movs	r3, r1
 8001aec:	1ac8      	subs	r0, r1, r3
 8001aee:	4283      	cmp	r3, r0
 8001af0:	dde6      	ble.n	8001ac0 <__utoa+0x28>
 8001af2:	7810      	ldrb	r0, [r2, #0]
 8001af4:	5ce5      	ldrb	r5, [r4, r3]
 8001af6:	7015      	strb	r5, [r2, #0]
 8001af8:	54e0      	strb	r0, [r4, r3]
 8001afa:	3201      	adds	r2, #1
 8001afc:	3b01      	subs	r3, #1
 8001afe:	e7f5      	b.n	8001aec <__utoa+0x54>
 8001b00:	080026c0 	.word	0x080026c0

08001b04 <utoa>:
 8001b04:	b510      	push	{r4, lr}
 8001b06:	f7ff ffc7 	bl	8001a98 <__utoa>
 8001b0a:	bd10      	pop	{r4, pc}

08001b0c <memcpy>:
 8001b0c:	2300      	movs	r3, #0
 8001b0e:	b510      	push	{r4, lr}
 8001b10:	429a      	cmp	r2, r3
 8001b12:	d100      	bne.n	8001b16 <memcpy+0xa>
 8001b14:	bd10      	pop	{r4, pc}
 8001b16:	5ccc      	ldrb	r4, [r1, r3]
 8001b18:	54c4      	strb	r4, [r0, r3]
 8001b1a:	3301      	adds	r3, #1
 8001b1c:	e7f8      	b.n	8001b10 <memcpy+0x4>
	...

08001b20 <_init>:
 8001b20:	b5f8      	push	{r3, r4, r5, r6, r7, lr}
 8001b22:	46c0      	nop			; (mov r8, r8)
 8001b24:	bcf8      	pop	{r3, r4, r5, r6, r7}
 8001b26:	bc08      	pop	{r3}
 8001b28:	469e      	mov	lr, r3
 8001b2a:	4770      	bx	lr

08001b2c <_fini>:
 8001b2c:	b5f8      	push	{r3, r4, r5, r6, r7, lr}
 8001b2e:	46c0      	nop			; (mov r8, r8)
 8001b30:	bcf8      	pop	{r3, r4, r5, r6, r7}
 8001b32:	bc08      	pop	{r3}
 8001b34:	469e      	mov	lr, r3
 8001b36:	4770      	bx	lr
